
kernel.elf:     file format elf64-littleriscv

SYMBOL TABLE:
0000000080000000 l    d  .text	0000000000000000 .text
0000000080001450 l    d  .rodata	0000000000000000 .rodata
00000000800017bc l    d  .data	0000000000000000 .data
0000000080002008 l    d  .got	0000000000000000 .got
0000000080002088 l    d  .got.plt	0000000000000000 .got.plt
0000000080002098 l    d  .bss	0000000000000000 .bss
0000000000000000 l    d  .debug_line	0000000000000000 .debug_line
0000000000000000 l    d  .debug_info	0000000000000000 .debug_info
0000000000000000 l    d  .debug_abbrev	0000000000000000 .debug_abbrev
0000000000000000 l    d  .debug_aranges	0000000000000000 .debug_aranges
0000000000000000 l    d  .debug_str	0000000000000000 .debug_str
0000000000000000 l    d  .comment	0000000000000000 .comment
0000000000000000 l    d  .debug_frame	0000000000000000 .debug_frame
0000000000000000 l    d  .debug_ranges	0000000000000000 .debug_ranges
0000000000000000 l    df *ABS*	0000000000000000 start.o
0000000000000008 l       *ABS*	0000000000000000 REGBYTES
0000000000000000 l    df *ABS*	0000000000000000 kernel.c
0000000000000000 l    df *ABS*	0000000000000000 uart.c
0000000000000000 l    df *ABS*	0000000000000000 printf.c
00000000800003a2 l     F .text	0000000000000430 _vsnprintf
0000000080002098 l     O .bss	00000000000003e8 out_buf
00000000800007d2 l     F .text	0000000000000080 _vprintf
0000000000000000 l    df *ABS*	0000000000000000 page.c
0000000080002480 l     O .bss	0000000000000004 _alloc_start
0000000080002484 l     O .bss	0000000000000004 _alloc_end
0000000080002488 l     O .bss	0000000000000004 _num_pages
00000000800008d0 l     F .text	000000000000001a _clear
00000000800008ea l     F .text	0000000000000028 _is_free
0000000080000912 l     F .text	0000000000000032 _set_flag
0000000080000944 l     F .text	0000000000000028 _is_last
000000008000096c l     F .text	0000000000000038 _align_page
0000000000000000 l    df *ABS*	0000000000000000 sched.c
0000000080000db0 l     F .text	000000000000001a r_mhartid
0000000080000dca l     F .text	000000000000001a w_mscratch
0000000080000de4 l     F .text	000000000000001a r_mie
0000000080000dfe l     F .text	000000000000001a w_mie
000000008000248c l     O .bss	0000000000000004 _top
0000000080002000 l     O .data	0000000000000004 _current
0000000000000000 l    df *ABS*	0000000000000000 user.c
0000000000000000 l    df *ABS*	0000000000000000 trap.c
0000000080001052 l     F .text	000000000000001a r_mhartid
000000008000106c l     F .text	000000000000001a w_mtvec
0000000000000000 l    df *ABS*	0000000000000000 plic.c
0000000080001210 l     F .text	0000000000000018 r_tp
0000000080001228 l     F .text	000000000000001a r_mie
0000000080001242 l     F .text	000000000000001a w_mie
0000000000000000 l    df *ABS*	0000000000000000 timer.c
0000000080001340 l     F .text	000000000000001a r_mhartid
000000008000135a l     F .text	000000000000001a r_mie
0000000080001374 l     F .text	000000000000001a w_mie
0000000080002490 l     O .bss	0000000000000004 _tick
0000000000000000 l    df *ABS*	0000000000000000 
0000000080002008 l     O .got	0000000000000000 _GLOBAL_OFFSET_TABLE_
000000008000138e g     F .text	0000000000000044 timer_load
0000000080000852 g     F .text	0000000000000050 printf
0000000080001474 g       .rodata	0000000000000000 BSS_END
00000000800012c8 g     F .text	000000000000003a plic_claim
0000000080001302 g     F .text	000000000000003e plic_complete
0000000080001470 g       .rodata	0000000000000000 BSS_START
000000008000144c g       .text	0000000000000000 _text_end
0000000080002498 g     O .bss	0000000000002800 task_stack
0000000080000b50 g     F .text	0000000000000150 page_alloc
0000000080002800 g       .rodata	0000000000000000 _gp
00000000800013fc g     F .text	0000000000000050 timer_handler
00000000800017ba g       .rodata	0000000000000000 _rodata_end
000000008000145c g       .rodata	0000000000000000 TEXT_END
0000000080001464 g       .rodata	0000000000000000 DATA_END
0000000080001458 g       .rodata	0000000000000000 TEXT_START
0000000080000f50 g     F .text	0000000000000034 task_yield
0000000080002098 g       .bss	0000000000000000 _bss_start
0000000088000000 g       .bss	0000000000000000 _memory_end
0000000080000026 g       .text	0000000000000000 _text_start
0000000080001028 g     F .text	000000000000002a os_main
0000000080000e40 g     F .text	000000000000007c schedule
0000000080000160 g       .text	0000000000000000 switch_to
0000000080002494 g       .bss	0000000000000000 _bss_end
00000000800002f2 g     F .text	0000000000000038 uart_puts
0000000080002494 g       .bss	0000000000000000 _heap_start
0000000080001102 g     F .text	00000000000000e8 trap_handler
00000000800013d2 g     F .text	000000000000002a timer_init
000000008000146c g       .rodata	0000000000000000 RODATA_END
0000000080000360 g     F .text	0000000000000042 uart_isr
000000008000d698 g       .bss	0000000000000000 end
0000000080001454 g       .rodata	0000000000000000 HEAP_SIZE
0000000080000228 g     F .text	000000000000008e uart_init
0000000080002000 g       .rodata	0000000000000000 etext
0000000080000fc4 g     F .text	000000000000003a user_task0
0000000080000000 g       .text	0000000000000000 _start
0000000080002000 g       .data	0000000000000000 _data_start
00000000800010a6 g     F .text	000000000000005c external_interrupt_handler
00000000800008a2 g     F .text	000000000000002e panic
0000000080000f84 g     F .text	0000000000000040 task_delay
0000000080000ebc g     F .text	0000000000000094 task_create
0000000080002004 g       .data	0000000000000000 _data_end
000000008000d698 g       .bss	0000000000000000 stack_top
000000008000032a g     F .text	0000000000000036 uart_getc
00000000800001ee g     F .text	000000000000003a start_kernel
00000000800002b6 g     F .text	000000000000003c uart_putc
0000000080000ca0 g     F .text	00000000000000a8 page_free
00000000800011ea g     F .text	0000000000000026 trap_test
0000000080001450 g       .rodata	0000000000000000 _rodata_start
0000000080000030 g       .text	0000000000000000 trap_vector
0000000080001468 g       .rodata	0000000000000000 RODATA_START
0000000080000d48 g     F .text	0000000000000068 page_test
0000000080000ffe g     F .text	000000000000002a user_task1
0000000080001460 g       .rodata	0000000000000000 DATA_START
0000000080000e18 g     F .text	0000000000000028 sched_init
00000000800009a4 g     F .text	00000000000001ac page_init
0000000080001086 g     F .text	0000000000000020 trap_init
0000000080001450 g       .rodata	0000000000000000 HEAP_START
0000000080004c98 g     O .bss	0000000000000a00 ctx_tasks
0000000007ffdb6c g       *ABS*	0000000000000000 _heap_size
000000008000125c g     F .text	000000000000006c plic_init



Disassembly of section .text:

0000000080000000 <_start>:
    80000000:	f14022f3          	csrr	t0,mhartid
    80000004:	00000337          	lui	t1,0x0
    80000008:	00628563          	beq	t0,t1,80000012 <_start+0x12>
    8000000c:	10500073          	wfi
    80000010:	bff5                	j	8000000c <_start+0xc>
    80000012:	00002197          	auipc	gp,0x2
    80000016:	0161b183          	ld	gp,22(gp) # 80002028 <_GLOBAL_OFFSET_TABLE_+0x20>
    8000001a:	00002117          	auipc	sp,0x2
    8000001e:	03e13103          	ld	sp,62(sp) # 80002058 <_GLOBAL_OFFSET_TABLE_+0x50>
    80000022:	1cc000ef          	jal	ra,800001ee <start_kernel>

0000000080000026 <_text_start>:
	...

0000000080000030 <trap_vector>:
    80000030:	340f9ff3          	csrrw	t6,mscratch,t6
    80000034:	001fb023          	sd	ra,0(t6)
    80000038:	002fb423          	sd	sp,8(t6)
    8000003c:	003fb823          	sd	gp,16(t6)
    80000040:	004fbc23          	sd	tp,24(t6)
    80000044:	025fb023          	sd	t0,32(t6)
    80000048:	026fb423          	sd	t1,40(t6)
    8000004c:	027fb823          	sd	t2,48(t6)
    80000050:	028fbc23          	sd	s0,56(t6)
    80000054:	049fb023          	sd	s1,64(t6)
    80000058:	04afb423          	sd	a0,72(t6)
    8000005c:	04bfb823          	sd	a1,80(t6)
    80000060:	04cfbc23          	sd	a2,88(t6)
    80000064:	06dfb023          	sd	a3,96(t6)
    80000068:	06efb423          	sd	a4,104(t6)
    8000006c:	06ffb823          	sd	a5,112(t6)
    80000070:	070fbc23          	sd	a6,120(t6)
    80000074:	091fb023          	sd	a7,128(t6)
    80000078:	092fb423          	sd	s2,136(t6)
    8000007c:	093fb823          	sd	s3,144(t6)
    80000080:	094fbc23          	sd	s4,152(t6)
    80000084:	0b5fb023          	sd	s5,160(t6)
    80000088:	0b6fb423          	sd	s6,168(t6)
    8000008c:	0b7fb823          	sd	s7,176(t6)
    80000090:	0b8fbc23          	sd	s8,184(t6)
    80000094:	0d9fb023          	sd	s9,192(t6)
    80000098:	0dafb423          	sd	s10,200(t6)
    8000009c:	0dbfb823          	sd	s11,208(t6)
    800000a0:	0dcfbc23          	sd	t3,216(t6)
    800000a4:	0fdfb023          	sd	t4,224(t6)
    800000a8:	0fefb423          	sd	t5,232(t6)
    800000ac:	8f7e                	mv	t5,t6
    800000ae:	34002ff3          	csrr	t6,mscratch
    800000b2:	0fff3823          	sd	t6,240(t5)
    800000b6:	34102573          	csrr	a0,mepc
    800000ba:	0eaf3c23          	sd	a0,248(t5)
    800000be:	340f1073          	csrw	mscratch,t5
    800000c2:	34102573          	csrr	a0,mepc
    800000c6:	342025f3          	csrr	a1,mcause
    800000ca:	038010ef          	jal	ra,80001102 <trap_handler>
    800000ce:	34151073          	csrw	mepc,a0
    800000d2:	34002ff3          	csrr	t6,mscratch
    800000d6:	000fb083          	ld	ra,0(t6)
    800000da:	008fb103          	ld	sp,8(t6)
    800000de:	010fb183          	ld	gp,16(t6)
    800000e2:	020fb283          	ld	t0,32(t6)
    800000e6:	028fb303          	ld	t1,40(t6)
    800000ea:	030fb383          	ld	t2,48(t6)
    800000ee:	038fb403          	ld	s0,56(t6)
    800000f2:	040fb483          	ld	s1,64(t6)
    800000f6:	048fb503          	ld	a0,72(t6)
    800000fa:	050fb583          	ld	a1,80(t6)
    800000fe:	058fb603          	ld	a2,88(t6)
    80000102:	060fb683          	ld	a3,96(t6)
    80000106:	068fb703          	ld	a4,104(t6)
    8000010a:	070fb783          	ld	a5,112(t6)
    8000010e:	078fb803          	ld	a6,120(t6)
    80000112:	080fb883          	ld	a7,128(t6)
    80000116:	088fb903          	ld	s2,136(t6)
    8000011a:	090fb983          	ld	s3,144(t6)
    8000011e:	098fba03          	ld	s4,152(t6)
    80000122:	0a0fba83          	ld	s5,160(t6)
    80000126:	0a8fbb03          	ld	s6,168(t6)
    8000012a:	0b0fbb83          	ld	s7,176(t6)
    8000012e:	0b8fbc03          	ld	s8,184(t6)
    80000132:	0c0fbc83          	ld	s9,192(t6)
    80000136:	0c8fbd03          	ld	s10,200(t6)
    8000013a:	0d0fbd83          	ld	s11,208(t6)
    8000013e:	0d8fbe03          	ld	t3,216(t6)
    80000142:	0e0fbe83          	ld	t4,224(t6)
    80000146:	0e8fbf03          	ld	t5,232(t6)
    8000014a:	0f0fbf83          	ld	t6,240(t6)
    8000014e:	30200073          	mret
    80000152:	0001                	nop
    80000154:	00000013          	nop
    80000158:	00000013          	nop
    8000015c:	00000013          	nop

0000000080000160 <switch_to>:
    80000160:	34051073          	csrw	mscratch,a0
    80000164:	7d6c                	ld	a1,248(a0)
    80000166:	34159073          	csrw	mepc,a1
    8000016a:	8faa                	mv	t6,a0
    8000016c:	000fb083          	ld	ra,0(t6)
    80000170:	008fb103          	ld	sp,8(t6)
    80000174:	010fb183          	ld	gp,16(t6)
    80000178:	020fb283          	ld	t0,32(t6)
    8000017c:	028fb303          	ld	t1,40(t6)
    80000180:	030fb383          	ld	t2,48(t6)
    80000184:	038fb403          	ld	s0,56(t6)
    80000188:	040fb483          	ld	s1,64(t6)
    8000018c:	048fb503          	ld	a0,72(t6)
    80000190:	050fb583          	ld	a1,80(t6)
    80000194:	058fb603          	ld	a2,88(t6)
    80000198:	060fb683          	ld	a3,96(t6)
    8000019c:	068fb703          	ld	a4,104(t6)
    800001a0:	070fb783          	ld	a5,112(t6)
    800001a4:	078fb803          	ld	a6,120(t6)
    800001a8:	080fb883          	ld	a7,128(t6)
    800001ac:	088fb903          	ld	s2,136(t6)
    800001b0:	090fb983          	ld	s3,144(t6)
    800001b4:	098fba03          	ld	s4,152(t6)
    800001b8:	0a0fba83          	ld	s5,160(t6)
    800001bc:	0a8fbb03          	ld	s6,168(t6)
    800001c0:	0b0fbb83          	ld	s7,176(t6)
    800001c4:	0b8fbc03          	ld	s8,184(t6)
    800001c8:	0c0fbc83          	ld	s9,192(t6)
    800001cc:	0c8fbd03          	ld	s10,200(t6)
    800001d0:	0d0fbd83          	ld	s11,208(t6)
    800001d4:	0d8fbe03          	ld	t3,216(t6)
    800001d8:	0e0fbe83          	ld	t4,224(t6)
    800001dc:	0e8fbf03          	ld	t5,232(t6)
    800001e0:	0f0fbf83          	ld	t6,240(t6)
    800001e4:	30200073          	mret
    800001e8:	0000                	unimp
    800001ea:	0000                	unimp
	...

00000000800001ee <start_kernel>:
    800001ee:	1141                	addi	sp,sp,-16
    800001f0:	e406                	sd	ra,8(sp)
    800001f2:	e022                	sd	s0,0(sp)
    800001f4:	0800                	addi	s0,sp,16
    800001f6:	032000ef          	jal	ra,80000228 <uart_init>
    800001fa:	00001517          	auipc	a0,0x1
    800001fe:	27e50513          	addi	a0,a0,638 # 80001478 <BSS_END+0x4>
    80000202:	0f0000ef          	jal	ra,800002f2 <uart_puts>
    80000206:	681000ef          	jal	ra,80001086 <trap_init>
    8000020a:	052010ef          	jal	ra,8000125c <plic_init>
    8000020e:	40b000ef          	jal	ra,80000e18 <sched_init>
    80000212:	617000ef          	jal	ra,80001028 <os_main>
    80000216:	42b000ef          	jal	ra,80000e40 <schedule>
    8000021a:	00001517          	auipc	a0,0x1
    8000021e:	26e50513          	addi	a0,a0,622 # 80001488 <BSS_END+0x14>
    80000222:	0d0000ef          	jal	ra,800002f2 <uart_puts>
    80000226:	a001                	j	80000226 <start_kernel+0x38>

0000000080000228 <uart_init>:
    80000228:	1101                	addi	sp,sp,-32
    8000022a:	ec22                	sd	s0,24(sp)
    8000022c:	1000                	addi	s0,sp,32
    8000022e:	100007b7          	lui	a5,0x10000
    80000232:	0785                	addi	a5,a5,1
    80000234:	00078023          	sb	zero,0(a5) # 10000000 <_heap_size+0x8002494>
    80000238:	100007b7          	lui	a5,0x10000
    8000023c:	078d                	addi	a5,a5,3
    8000023e:	0007c783          	lbu	a5,0(a5) # 10000000 <_heap_size+0x8002494>
    80000242:	fef407a3          	sb	a5,-17(s0)
    80000246:	100007b7          	lui	a5,0x10000
    8000024a:	078d                	addi	a5,a5,3
    8000024c:	fef44703          	lbu	a4,-17(s0)
    80000250:	f8076713          	ori	a4,a4,-128
    80000254:	0ff77713          	andi	a4,a4,255
    80000258:	00e78023          	sb	a4,0(a5) # 10000000 <_heap_size+0x8002494>
    8000025c:	100007b7          	lui	a5,0x10000
    80000260:	470d                	li	a4,3
    80000262:	00e78023          	sb	a4,0(a5) # 10000000 <_heap_size+0x8002494>
    80000266:	100007b7          	lui	a5,0x10000
    8000026a:	0785                	addi	a5,a5,1
    8000026c:	00078023          	sb	zero,0(a5) # 10000000 <_heap_size+0x8002494>
    80000270:	fe0407a3          	sb	zero,-17(s0)
    80000274:	100007b7          	lui	a5,0x10000
    80000278:	078d                	addi	a5,a5,3
    8000027a:	fef44703          	lbu	a4,-17(s0)
    8000027e:	00376713          	ori	a4,a4,3
    80000282:	0ff77713          	andi	a4,a4,255
    80000286:	00e78023          	sb	a4,0(a5) # 10000000 <_heap_size+0x8002494>
    8000028a:	100007b7          	lui	a5,0x10000
    8000028e:	0785                	addi	a5,a5,1
    80000290:	0007c783          	lbu	a5,0(a5) # 10000000 <_heap_size+0x8002494>
    80000294:	fef40723          	sb	a5,-18(s0)
    80000298:	100007b7          	lui	a5,0x10000
    8000029c:	0785                	addi	a5,a5,1
    8000029e:	fee44703          	lbu	a4,-18(s0)
    800002a2:	00176713          	ori	a4,a4,1
    800002a6:	0ff77713          	andi	a4,a4,255
    800002aa:	00e78023          	sb	a4,0(a5) # 10000000 <_heap_size+0x8002494>
    800002ae:	0001                	nop
    800002b0:	6462                	ld	s0,24(sp)
    800002b2:	6105                	addi	sp,sp,32
    800002b4:	8082                	ret

00000000800002b6 <uart_putc>:
    800002b6:	1101                	addi	sp,sp,-32
    800002b8:	ec22                	sd	s0,24(sp)
    800002ba:	1000                	addi	s0,sp,32
    800002bc:	87aa                	mv	a5,a0
    800002be:	fef407a3          	sb	a5,-17(s0)
    800002c2:	0001                	nop
    800002c4:	100007b7          	lui	a5,0x10000
    800002c8:	0795                	addi	a5,a5,5
    800002ca:	0007c783          	lbu	a5,0(a5) # 10000000 <_heap_size+0x8002494>
    800002ce:	0ff7f793          	andi	a5,a5,255
    800002d2:	2781                	sext.w	a5,a5
    800002d4:	0207f793          	andi	a5,a5,32
    800002d8:	2781                	sext.w	a5,a5
    800002da:	d7ed                	beqz	a5,800002c4 <uart_putc+0xe>
    800002dc:	10000737          	lui	a4,0x10000
    800002e0:	fef44783          	lbu	a5,-17(s0)
    800002e4:	00f70023          	sb	a5,0(a4) # 10000000 <_heap_size+0x8002494>
    800002e8:	2781                	sext.w	a5,a5
    800002ea:	853e                	mv	a0,a5
    800002ec:	6462                	ld	s0,24(sp)
    800002ee:	6105                	addi	sp,sp,32
    800002f0:	8082                	ret

00000000800002f2 <uart_puts>:
    800002f2:	1101                	addi	sp,sp,-32
    800002f4:	ec06                	sd	ra,24(sp)
    800002f6:	e822                	sd	s0,16(sp)
    800002f8:	1000                	addi	s0,sp,32
    800002fa:	fea43423          	sd	a0,-24(s0)
    800002fe:	a821                	j	80000316 <uart_puts+0x24>
    80000300:	fe843783          	ld	a5,-24(s0)
    80000304:	00178713          	addi	a4,a5,1
    80000308:	fee43423          	sd	a4,-24(s0)
    8000030c:	0007c783          	lbu	a5,0(a5)
    80000310:	853e                	mv	a0,a5
    80000312:	fa5ff0ef          	jal	ra,800002b6 <uart_putc>
    80000316:	fe843783          	ld	a5,-24(s0)
    8000031a:	0007c783          	lbu	a5,0(a5)
    8000031e:	f3ed                	bnez	a5,80000300 <uart_puts+0xe>
    80000320:	0001                	nop
    80000322:	60e2                	ld	ra,24(sp)
    80000324:	6442                	ld	s0,16(sp)
    80000326:	6105                	addi	sp,sp,32
    80000328:	8082                	ret

000000008000032a <uart_getc>:
    8000032a:	1141                	addi	sp,sp,-16
    8000032c:	e422                	sd	s0,8(sp)
    8000032e:	0800                	addi	s0,sp,16
    80000330:	100007b7          	lui	a5,0x10000
    80000334:	0795                	addi	a5,a5,5
    80000336:	0007c783          	lbu	a5,0(a5) # 10000000 <_heap_size+0x8002494>
    8000033a:	0ff7f793          	andi	a5,a5,255
    8000033e:	2781                	sext.w	a5,a5
    80000340:	8b85                	andi	a5,a5,1
    80000342:	2781                	sext.w	a5,a5
    80000344:	cb89                	beqz	a5,80000356 <uart_getc+0x2c>
    80000346:	100007b7          	lui	a5,0x10000
    8000034a:	0007c783          	lbu	a5,0(a5) # 10000000 <_heap_size+0x8002494>
    8000034e:	0ff7f793          	andi	a5,a5,255
    80000352:	2781                	sext.w	a5,a5
    80000354:	a011                	j	80000358 <uart_getc+0x2e>
    80000356:	57fd                	li	a5,-1
    80000358:	853e                	mv	a0,a5
    8000035a:	6422                	ld	s0,8(sp)
    8000035c:	0141                	addi	sp,sp,16
    8000035e:	8082                	ret

0000000080000360 <uart_isr>:
    80000360:	1101                	addi	sp,sp,-32
    80000362:	ec06                	sd	ra,24(sp)
    80000364:	e822                	sd	s0,16(sp)
    80000366:	1000                	addi	s0,sp,32
    80000368:	fc3ff0ef          	jal	ra,8000032a <uart_getc>
    8000036c:	87aa                	mv	a5,a0
    8000036e:	fef42623          	sw	a5,-20(s0)
    80000372:	fec42783          	lw	a5,-20(s0)
    80000376:	0007871b          	sext.w	a4,a5
    8000037a:	57fd                	li	a5,-1
    8000037c:	00f70d63          	beq	a4,a5,80000396 <uart_isr+0x36>
    80000380:	fec42783          	lw	a5,-20(s0)
    80000384:	0ff7f793          	andi	a5,a5,255
    80000388:	853e                	mv	a0,a5
    8000038a:	f2dff0ef          	jal	ra,800002b6 <uart_putc>
    8000038e:	4529                	li	a0,10
    80000390:	f27ff0ef          	jal	ra,800002b6 <uart_putc>
    80000394:	bfd1                	j	80000368 <uart_isr+0x8>
    80000396:	0001                	nop
    80000398:	0001                	nop
    8000039a:	60e2                	ld	ra,24(sp)
    8000039c:	6442                	ld	s0,16(sp)
    8000039e:	6105                	addi	sp,sp,32
    800003a0:	8082                	ret

00000000800003a2 <_vsnprintf>:
    800003a2:	7119                	addi	sp,sp,-128
    800003a4:	fca2                	sd	s0,120(sp)
    800003a6:	0100                	addi	s0,sp,128
    800003a8:	f8a43c23          	sd	a0,-104(s0)
    800003ac:	f8b43823          	sd	a1,-112(s0)
    800003b0:	f8c43423          	sd	a2,-120(s0)
    800003b4:	f8d43023          	sd	a3,-128(s0)
    800003b8:	fe042623          	sw	zero,-20(s0)
    800003bc:	fe042423          	sw	zero,-24(s0)
    800003c0:	fe043023          	sd	zero,-32(s0)
    800003c4:	ae5d                	j	8000077a <_vsnprintf+0x3d8>
    800003c6:	fec42783          	lw	a5,-20(s0)
    800003ca:	2781                	sext.w	a5,a5
    800003cc:	34078a63          	beqz	a5,80000720 <_vsnprintf+0x37e>
    800003d0:	f8843783          	ld	a5,-120(s0)
    800003d4:	0007c783          	lbu	a5,0(a5)
    800003d8:	2781                	sext.w	a5,a5
    800003da:	f9d7869b          	addiw	a3,a5,-99
    800003de:	0006871b          	sext.w	a4,a3
    800003e2:	47d5                	li	a5,21
    800003e4:	38e7e563          	bltu	a5,a4,8000076e <_vsnprintf+0x3cc>
    800003e8:	02069793          	slli	a5,a3,0x20
    800003ec:	9381                	srli	a5,a5,0x20
    800003ee:	00279713          	slli	a4,a5,0x2
    800003f2:	00001797          	auipc	a5,0x1
    800003f6:	0ae78793          	addi	a5,a5,174 # 800014a0 <BSS_END+0x2c>
    800003fa:	97ba                	add	a5,a5,a4
    800003fc:	439c                	lw	a5,0(a5)
    800003fe:	0007871b          	sext.w	a4,a5
    80000402:	00001797          	auipc	a5,0x1
    80000406:	09e78793          	addi	a5,a5,158 # 800014a0 <BSS_END+0x2c>
    8000040a:	97ba                	add	a5,a5,a4
    8000040c:	8782                	jr	a5
    8000040e:	4785                	li	a5,1
    80000410:	fef42423          	sw	a5,-24(s0)
    80000414:	aeb1                	j	80000770 <_vsnprintf+0x3ce>
    80000416:	4785                	li	a5,1
    80000418:	fef42423          	sw	a5,-24(s0)
    8000041c:	f9843783          	ld	a5,-104(s0)
    80000420:	c385                	beqz	a5,80000440 <_vsnprintf+0x9e>
    80000422:	fe043703          	ld	a4,-32(s0)
    80000426:	f9043783          	ld	a5,-112(s0)
    8000042a:	00f77b63          	bleu	a5,a4,80000440 <_vsnprintf+0x9e>
    8000042e:	f9843703          	ld	a4,-104(s0)
    80000432:	fe043783          	ld	a5,-32(s0)
    80000436:	97ba                	add	a5,a5,a4
    80000438:	03000713          	li	a4,48
    8000043c:	00e78023          	sb	a4,0(a5)
    80000440:	fe043783          	ld	a5,-32(s0)
    80000444:	0785                	addi	a5,a5,1
    80000446:	fef43023          	sd	a5,-32(s0)
    8000044a:	f9843783          	ld	a5,-104(s0)
    8000044e:	c385                	beqz	a5,8000046e <_vsnprintf+0xcc>
    80000450:	fe043703          	ld	a4,-32(s0)
    80000454:	f9043783          	ld	a5,-112(s0)
    80000458:	00f77b63          	bleu	a5,a4,8000046e <_vsnprintf+0xcc>
    8000045c:	f9843703          	ld	a4,-104(s0)
    80000460:	fe043783          	ld	a5,-32(s0)
    80000464:	97ba                	add	a5,a5,a4
    80000466:	07800713          	li	a4,120
    8000046a:	00e78023          	sb	a4,0(a5)
    8000046e:	fe043783          	ld	a5,-32(s0)
    80000472:	0785                	addi	a5,a5,1
    80000474:	fef43023          	sd	a5,-32(s0)
    80000478:	fe842783          	lw	a5,-24(s0)
    8000047c:	2781                	sext.w	a5,a5
    8000047e:	cb89                	beqz	a5,80000490 <_vsnprintf+0xee>
    80000480:	f8043783          	ld	a5,-128(s0)
    80000484:	00878713          	addi	a4,a5,8
    80000488:	f8e43023          	sd	a4,-128(s0)
    8000048c:	639c                	ld	a5,0(a5)
    8000048e:	a801                	j	8000049e <_vsnprintf+0xfc>
    80000490:	f8043783          	ld	a5,-128(s0)
    80000494:	00878713          	addi	a4,a5,8
    80000498:	f8e43023          	sd	a4,-128(s0)
    8000049c:	439c                	lw	a5,0(a5)
    8000049e:	faf43423          	sd	a5,-88(s0)
    800004a2:	fe842783          	lw	a5,-24(s0)
    800004a6:	2781                	sext.w	a5,a5
    800004a8:	c399                	beqz	a5,800004ae <_vsnprintf+0x10c>
    800004aa:	47bd                	li	a5,15
    800004ac:	a011                	j	800004b0 <_vsnprintf+0x10e>
    800004ae:	479d                	li	a5,7
    800004b0:	faf42223          	sw	a5,-92(s0)
    800004b4:	fa442783          	lw	a5,-92(s0)
    800004b8:	fcf42e23          	sw	a5,-36(s0)
    800004bc:	a041                	j	8000053c <_vsnprintf+0x19a>
    800004be:	fdc42783          	lw	a5,-36(s0)
    800004c2:	0027979b          	slliw	a5,a5,0x2
    800004c6:	2781                	sext.w	a5,a5
    800004c8:	fa843703          	ld	a4,-88(s0)
    800004cc:	40f757b3          	sra	a5,a4,a5
    800004d0:	2781                	sext.w	a5,a5
    800004d2:	8bbd                	andi	a5,a5,15
    800004d4:	faf42023          	sw	a5,-96(s0)
    800004d8:	f9843783          	ld	a5,-104(s0)
    800004dc:	c7b1                	beqz	a5,80000528 <_vsnprintf+0x186>
    800004de:	fe043703          	ld	a4,-32(s0)
    800004e2:	f9043783          	ld	a5,-112(s0)
    800004e6:	04f77163          	bleu	a5,a4,80000528 <_vsnprintf+0x186>
    800004ea:	fa042783          	lw	a5,-96(s0)
    800004ee:	0007871b          	sext.w	a4,a5
    800004f2:	47a5                	li	a5,9
    800004f4:	00e7cb63          	blt	a5,a4,8000050a <_vsnprintf+0x168>
    800004f8:	fa042783          	lw	a5,-96(s0)
    800004fc:	0ff7f793          	andi	a5,a5,255
    80000500:	0307879b          	addiw	a5,a5,48
    80000504:	0ff7f793          	andi	a5,a5,255
    80000508:	a809                	j	8000051a <_vsnprintf+0x178>
    8000050a:	fa042783          	lw	a5,-96(s0)
    8000050e:	0ff7f793          	andi	a5,a5,255
    80000512:	0577879b          	addiw	a5,a5,87
    80000516:	0ff7f793          	andi	a5,a5,255
    8000051a:	f9843683          	ld	a3,-104(s0)
    8000051e:	fe043703          	ld	a4,-32(s0)
    80000522:	9736                	add	a4,a4,a3
    80000524:	00f70023          	sb	a5,0(a4)
    80000528:	fe043783          	ld	a5,-32(s0)
    8000052c:	0785                	addi	a5,a5,1
    8000052e:	fef43023          	sd	a5,-32(s0)
    80000532:	fdc42783          	lw	a5,-36(s0)
    80000536:	37fd                	addiw	a5,a5,-1
    80000538:	fcf42e23          	sw	a5,-36(s0)
    8000053c:	fdc42783          	lw	a5,-36(s0)
    80000540:	2781                	sext.w	a5,a5
    80000542:	f607dee3          	bgez	a5,800004be <_vsnprintf+0x11c>
    80000546:	fe042423          	sw	zero,-24(s0)
    8000054a:	fe042623          	sw	zero,-20(s0)
    8000054e:	a40d                	j	80000770 <_vsnprintf+0x3ce>
    80000550:	fe842783          	lw	a5,-24(s0)
    80000554:	2781                	sext.w	a5,a5
    80000556:	cb89                	beqz	a5,80000568 <_vsnprintf+0x1c6>
    80000558:	f8043783          	ld	a5,-128(s0)
    8000055c:	00878713          	addi	a4,a5,8
    80000560:	f8e43023          	sd	a4,-128(s0)
    80000564:	639c                	ld	a5,0(a5)
    80000566:	a801                	j	80000576 <_vsnprintf+0x1d4>
    80000568:	f8043783          	ld	a5,-128(s0)
    8000056c:	00878713          	addi	a4,a5,8
    80000570:	f8e43023          	sd	a4,-128(s0)
    80000574:	439c                	lw	a5,0(a5)
    80000576:	fcf43823          	sd	a5,-48(s0)
    8000057a:	fd043783          	ld	a5,-48(s0)
    8000057e:	0207df63          	bgez	a5,800005bc <_vsnprintf+0x21a>
    80000582:	fd043783          	ld	a5,-48(s0)
    80000586:	40f007b3          	neg	a5,a5
    8000058a:	fcf43823          	sd	a5,-48(s0)
    8000058e:	f9843783          	ld	a5,-104(s0)
    80000592:	c385                	beqz	a5,800005b2 <_vsnprintf+0x210>
    80000594:	fe043703          	ld	a4,-32(s0)
    80000598:	f9043783          	ld	a5,-112(s0)
    8000059c:	00f77b63          	bleu	a5,a4,800005b2 <_vsnprintf+0x210>
    800005a0:	f9843703          	ld	a4,-104(s0)
    800005a4:	fe043783          	ld	a5,-32(s0)
    800005a8:	97ba                	add	a5,a5,a4
    800005aa:	02d00713          	li	a4,45
    800005ae:	00e78023          	sb	a4,0(a5)
    800005b2:	fe043783          	ld	a5,-32(s0)
    800005b6:	0785                	addi	a5,a5,1
    800005b8:	fef43023          	sd	a5,-32(s0)
    800005bc:	4785                	li	a5,1
    800005be:	fcf43423          	sd	a5,-56(s0)
    800005c2:	fd043783          	ld	a5,-48(s0)
    800005c6:	fcf43023          	sd	a5,-64(s0)
    800005ca:	a031                	j	800005d6 <_vsnprintf+0x234>
    800005cc:	fc843783          	ld	a5,-56(s0)
    800005d0:	0785                	addi	a5,a5,1
    800005d2:	fcf43423          	sd	a5,-56(s0)
    800005d6:	fc043703          	ld	a4,-64(s0)
    800005da:	47a9                	li	a5,10
    800005dc:	02f747b3          	div	a5,a4,a5
    800005e0:	fcf43023          	sd	a5,-64(s0)
    800005e4:	fc043783          	ld	a5,-64(s0)
    800005e8:	f3f5                	bnez	a5,800005cc <_vsnprintf+0x22a>
    800005ea:	fc843783          	ld	a5,-56(s0)
    800005ee:	2781                	sext.w	a5,a5
    800005f0:	37fd                	addiw	a5,a5,-1
    800005f2:	2781                	sext.w	a5,a5
    800005f4:	faf42e23          	sw	a5,-68(s0)
    800005f8:	a8b1                	j	80000654 <_vsnprintf+0x2b2>
    800005fa:	f9843783          	ld	a5,-104(s0)
    800005fe:	cf9d                	beqz	a5,8000063c <_vsnprintf+0x29a>
    80000600:	fbc42703          	lw	a4,-68(s0)
    80000604:	fe043783          	ld	a5,-32(s0)
    80000608:	97ba                	add	a5,a5,a4
    8000060a:	f9043703          	ld	a4,-112(s0)
    8000060e:	02e7f763          	bleu	a4,a5,8000063c <_vsnprintf+0x29a>
    80000612:	fd043703          	ld	a4,-48(s0)
    80000616:	47a9                	li	a5,10
    80000618:	02f767b3          	rem	a5,a4,a5
    8000061c:	0ff7f713          	andi	a4,a5,255
    80000620:	fbc42683          	lw	a3,-68(s0)
    80000624:	fe043783          	ld	a5,-32(s0)
    80000628:	97b6                	add	a5,a5,a3
    8000062a:	f9843683          	ld	a3,-104(s0)
    8000062e:	97b6                	add	a5,a5,a3
    80000630:	0307071b          	addiw	a4,a4,48
    80000634:	0ff77713          	andi	a4,a4,255
    80000638:	00e78023          	sb	a4,0(a5)
    8000063c:	fd043703          	ld	a4,-48(s0)
    80000640:	47a9                	li	a5,10
    80000642:	02f747b3          	div	a5,a4,a5
    80000646:	fcf43823          	sd	a5,-48(s0)
    8000064a:	fbc42783          	lw	a5,-68(s0)
    8000064e:	37fd                	addiw	a5,a5,-1
    80000650:	faf42e23          	sw	a5,-68(s0)
    80000654:	fbc42783          	lw	a5,-68(s0)
    80000658:	2781                	sext.w	a5,a5
    8000065a:	fa07d0e3          	bgez	a5,800005fa <_vsnprintf+0x258>
    8000065e:	fc843783          	ld	a5,-56(s0)
    80000662:	fe043703          	ld	a4,-32(s0)
    80000666:	97ba                	add	a5,a5,a4
    80000668:	fef43023          	sd	a5,-32(s0)
    8000066c:	fe042423          	sw	zero,-24(s0)
    80000670:	fe042623          	sw	zero,-20(s0)
    80000674:	a8f5                	j	80000770 <_vsnprintf+0x3ce>
    80000676:	f8043783          	ld	a5,-128(s0)
    8000067a:	00878713          	addi	a4,a5,8
    8000067e:	f8e43023          	sd	a4,-128(s0)
    80000682:	639c                	ld	a5,0(a5)
    80000684:	faf43823          	sd	a5,-80(s0)
    80000688:	a83d                	j	800006c6 <_vsnprintf+0x324>
    8000068a:	f9843783          	ld	a5,-104(s0)
    8000068e:	c395                	beqz	a5,800006b2 <_vsnprintf+0x310>
    80000690:	fe043703          	ld	a4,-32(s0)
    80000694:	f9043783          	ld	a5,-112(s0)
    80000698:	00f77d63          	bleu	a5,a4,800006b2 <_vsnprintf+0x310>
    8000069c:	f9843703          	ld	a4,-104(s0)
    800006a0:	fe043783          	ld	a5,-32(s0)
    800006a4:	97ba                	add	a5,a5,a4
    800006a6:	fb043703          	ld	a4,-80(s0)
    800006aa:	00074703          	lbu	a4,0(a4)
    800006ae:	00e78023          	sb	a4,0(a5)
    800006b2:	fe043783          	ld	a5,-32(s0)
    800006b6:	0785                	addi	a5,a5,1
    800006b8:	fef43023          	sd	a5,-32(s0)
    800006bc:	fb043783          	ld	a5,-80(s0)
    800006c0:	0785                	addi	a5,a5,1
    800006c2:	faf43823          	sd	a5,-80(s0)
    800006c6:	fb043783          	ld	a5,-80(s0)
    800006ca:	0007c783          	lbu	a5,0(a5)
    800006ce:	ffd5                	bnez	a5,8000068a <_vsnprintf+0x2e8>
    800006d0:	fe042423          	sw	zero,-24(s0)
    800006d4:	fe042623          	sw	zero,-20(s0)
    800006d8:	a861                	j	80000770 <_vsnprintf+0x3ce>
    800006da:	f9843783          	ld	a5,-104(s0)
    800006de:	c79d                	beqz	a5,8000070c <_vsnprintf+0x36a>
    800006e0:	fe043703          	ld	a4,-32(s0)
    800006e4:	f9043783          	ld	a5,-112(s0)
    800006e8:	02f77263          	bleu	a5,a4,8000070c <_vsnprintf+0x36a>
    800006ec:	f8043783          	ld	a5,-128(s0)
    800006f0:	00878713          	addi	a4,a5,8
    800006f4:	f8e43023          	sd	a4,-128(s0)
    800006f8:	4394                	lw	a3,0(a5)
    800006fa:	f9843703          	ld	a4,-104(s0)
    800006fe:	fe043783          	ld	a5,-32(s0)
    80000702:	97ba                	add	a5,a5,a4
    80000704:	0ff6f713          	andi	a4,a3,255
    80000708:	00e78023          	sb	a4,0(a5)
    8000070c:	fe043783          	ld	a5,-32(s0)
    80000710:	0785                	addi	a5,a5,1
    80000712:	fef43023          	sd	a5,-32(s0)
    80000716:	fe042423          	sw	zero,-24(s0)
    8000071a:	fe042623          	sw	zero,-20(s0)
    8000071e:	a889                	j	80000770 <_vsnprintf+0x3ce>
    80000720:	f8843783          	ld	a5,-120(s0)
    80000724:	0007c783          	lbu	a5,0(a5)
    80000728:	873e                	mv	a4,a5
    8000072a:	02500793          	li	a5,37
    8000072e:	00f71663          	bne	a4,a5,8000073a <_vsnprintf+0x398>
    80000732:	4785                	li	a5,1
    80000734:	fef42623          	sw	a5,-20(s0)
    80000738:	a825                	j	80000770 <_vsnprintf+0x3ce>
    8000073a:	f9843783          	ld	a5,-104(s0)
    8000073e:	c395                	beqz	a5,80000762 <_vsnprintf+0x3c0>
    80000740:	fe043703          	ld	a4,-32(s0)
    80000744:	f9043783          	ld	a5,-112(s0)
    80000748:	00f77d63          	bleu	a5,a4,80000762 <_vsnprintf+0x3c0>
    8000074c:	f9843703          	ld	a4,-104(s0)
    80000750:	fe043783          	ld	a5,-32(s0)
    80000754:	97ba                	add	a5,a5,a4
    80000756:	f8843703          	ld	a4,-120(s0)
    8000075a:	00074703          	lbu	a4,0(a4)
    8000075e:	00e78023          	sb	a4,0(a5)
    80000762:	fe043783          	ld	a5,-32(s0)
    80000766:	0785                	addi	a5,a5,1
    80000768:	fef43023          	sd	a5,-32(s0)
    8000076c:	a011                	j	80000770 <_vsnprintf+0x3ce>
    8000076e:	0001                	nop
    80000770:	f8843783          	ld	a5,-120(s0)
    80000774:	0785                	addi	a5,a5,1
    80000776:	f8f43423          	sd	a5,-120(s0)
    8000077a:	f8843783          	ld	a5,-120(s0)
    8000077e:	0007c783          	lbu	a5,0(a5)
    80000782:	c40792e3          	bnez	a5,800003c6 <_vsnprintf+0x24>
    80000786:	f9843783          	ld	a5,-104(s0)
    8000078a:	cf99                	beqz	a5,800007a8 <_vsnprintf+0x406>
    8000078c:	fe043703          	ld	a4,-32(s0)
    80000790:	f9043783          	ld	a5,-112(s0)
    80000794:	00f77a63          	bleu	a5,a4,800007a8 <_vsnprintf+0x406>
    80000798:	f9843703          	ld	a4,-104(s0)
    8000079c:	fe043783          	ld	a5,-32(s0)
    800007a0:	97ba                	add	a5,a5,a4
    800007a2:	00078023          	sb	zero,0(a5)
    800007a6:	a839                	j	800007c4 <_vsnprintf+0x422>
    800007a8:	f9843783          	ld	a5,-104(s0)
    800007ac:	cf81                	beqz	a5,800007c4 <_vsnprintf+0x422>
    800007ae:	f9043783          	ld	a5,-112(s0)
    800007b2:	cb89                	beqz	a5,800007c4 <_vsnprintf+0x422>
    800007b4:	f9043783          	ld	a5,-112(s0)
    800007b8:	17fd                	addi	a5,a5,-1
    800007ba:	f9843703          	ld	a4,-104(s0)
    800007be:	97ba                	add	a5,a5,a4
    800007c0:	00078023          	sb	zero,0(a5)
    800007c4:	fe043783          	ld	a5,-32(s0)
    800007c8:	2781                	sext.w	a5,a5
    800007ca:	853e                	mv	a0,a5
    800007cc:	7466                	ld	s0,120(sp)
    800007ce:	6109                	addi	sp,sp,128
    800007d0:	8082                	ret

00000000800007d2 <_vprintf>:
    800007d2:	7179                	addi	sp,sp,-48
    800007d4:	f406                	sd	ra,40(sp)
    800007d6:	f022                	sd	s0,32(sp)
    800007d8:	1800                	addi	s0,sp,48
    800007da:	fca43c23          	sd	a0,-40(s0)
    800007de:	fcb43823          	sd	a1,-48(s0)
    800007e2:	fd043683          	ld	a3,-48(s0)
    800007e6:	fd843603          	ld	a2,-40(s0)
    800007ea:	55fd                	li	a1,-1
    800007ec:	4501                	li	a0,0
    800007ee:	bb5ff0ef          	jal	ra,800003a2 <_vsnprintf>
    800007f2:	87aa                	mv	a5,a0
    800007f4:	fef42623          	sw	a5,-20(s0)
    800007f8:	fec42783          	lw	a5,-20(s0)
    800007fc:	2785                	addiw	a5,a5,1
    800007fe:	2781                	sext.w	a5,a5
    80000800:	2781                	sext.w	a5,a5
    80000802:	873e                	mv	a4,a5
    80000804:	3e700793          	li	a5,999
    80000808:	00e7f963          	bleu	a4,a5,8000081a <_vprintf+0x48>
    8000080c:	00001517          	auipc	a0,0x1
    80000810:	cec50513          	addi	a0,a0,-788 # 800014f8 <BSS_END+0x84>
    80000814:	adfff0ef          	jal	ra,800002f2 <uart_puts>
    80000818:	a001                	j	80000818 <_vprintf+0x46>
    8000081a:	fec42783          	lw	a5,-20(s0)
    8000081e:	2785                	addiw	a5,a5,1
    80000820:	2781                	sext.w	a5,a5
    80000822:	fd043683          	ld	a3,-48(s0)
    80000826:	fd843603          	ld	a2,-40(s0)
    8000082a:	85be                	mv	a1,a5
    8000082c:	00002517          	auipc	a0,0x2
    80000830:	86c50513          	addi	a0,a0,-1940 # 80002098 <_bss_start>
    80000834:	b6fff0ef          	jal	ra,800003a2 <_vsnprintf>
    80000838:	00002517          	auipc	a0,0x2
    8000083c:	86050513          	addi	a0,a0,-1952 # 80002098 <_bss_start>
    80000840:	ab3ff0ef          	jal	ra,800002f2 <uart_puts>
    80000844:	fec42783          	lw	a5,-20(s0)
    80000848:	853e                	mv	a0,a5
    8000084a:	70a2                	ld	ra,40(sp)
    8000084c:	7402                	ld	s0,32(sp)
    8000084e:	6145                	addi	sp,sp,48
    80000850:	8082                	ret

0000000080000852 <printf>:
    80000852:	7159                	addi	sp,sp,-112
    80000854:	f406                	sd	ra,40(sp)
    80000856:	f022                	sd	s0,32(sp)
    80000858:	1800                	addi	s0,sp,48
    8000085a:	fca43c23          	sd	a0,-40(s0)
    8000085e:	e40c                	sd	a1,8(s0)
    80000860:	e810                	sd	a2,16(s0)
    80000862:	ec14                	sd	a3,24(s0)
    80000864:	f018                	sd	a4,32(s0)
    80000866:	f41c                	sd	a5,40(s0)
    80000868:	03043823          	sd	a6,48(s0)
    8000086c:	03143c23          	sd	a7,56(s0)
    80000870:	fe042623          	sw	zero,-20(s0)
    80000874:	04040793          	addi	a5,s0,64
    80000878:	fc878793          	addi	a5,a5,-56
    8000087c:	fef43023          	sd	a5,-32(s0)
    80000880:	fe043783          	ld	a5,-32(s0)
    80000884:	85be                	mv	a1,a5
    80000886:	fd843503          	ld	a0,-40(s0)
    8000088a:	f49ff0ef          	jal	ra,800007d2 <_vprintf>
    8000088e:	87aa                	mv	a5,a0
    80000890:	fef42623          	sw	a5,-20(s0)
    80000894:	fec42783          	lw	a5,-20(s0)
    80000898:	853e                	mv	a0,a5
    8000089a:	70a2                	ld	ra,40(sp)
    8000089c:	7402                	ld	s0,32(sp)
    8000089e:	6165                	addi	sp,sp,112
    800008a0:	8082                	ret

00000000800008a2 <panic>:
    800008a2:	1101                	addi	sp,sp,-32
    800008a4:	ec06                	sd	ra,24(sp)
    800008a6:	e822                	sd	s0,16(sp)
    800008a8:	1000                	addi	s0,sp,32
    800008aa:	fea43423          	sd	a0,-24(s0)
    800008ae:	00001517          	auipc	a0,0x1
    800008b2:	c7250513          	addi	a0,a0,-910 # 80001520 <BSS_END+0xac>
    800008b6:	f9dff0ef          	jal	ra,80000852 <printf>
    800008ba:	fe843503          	ld	a0,-24(s0)
    800008be:	f95ff0ef          	jal	ra,80000852 <printf>
    800008c2:	00001517          	auipc	a0,0x1
    800008c6:	c6650513          	addi	a0,a0,-922 # 80001528 <BSS_END+0xb4>
    800008ca:	f89ff0ef          	jal	ra,80000852 <printf>
    800008ce:	a001                	j	800008ce <panic+0x2c>

00000000800008d0 <_clear>:
    800008d0:	1101                	addi	sp,sp,-32
    800008d2:	ec22                	sd	s0,24(sp)
    800008d4:	1000                	addi	s0,sp,32
    800008d6:	fea43423          	sd	a0,-24(s0)
    800008da:	fe843783          	ld	a5,-24(s0)
    800008de:	00078023          	sb	zero,0(a5)
    800008e2:	0001                	nop
    800008e4:	6462                	ld	s0,24(sp)
    800008e6:	6105                	addi	sp,sp,32
    800008e8:	8082                	ret

00000000800008ea <_is_free>:
    800008ea:	1101                	addi	sp,sp,-32
    800008ec:	ec22                	sd	s0,24(sp)
    800008ee:	1000                	addi	s0,sp,32
    800008f0:	fea43423          	sd	a0,-24(s0)
    800008f4:	fe843783          	ld	a5,-24(s0)
    800008f8:	0007c783          	lbu	a5,0(a5)
    800008fc:	2781                	sext.w	a5,a5
    800008fe:	8b85                	andi	a5,a5,1
    80000900:	2781                	sext.w	a5,a5
    80000902:	c399                	beqz	a5,80000908 <_is_free+0x1e>
    80000904:	4781                	li	a5,0
    80000906:	a011                	j	8000090a <_is_free+0x20>
    80000908:	4785                	li	a5,1
    8000090a:	853e                	mv	a0,a5
    8000090c:	6462                	ld	s0,24(sp)
    8000090e:	6105                	addi	sp,sp,32
    80000910:	8082                	ret

0000000080000912 <_set_flag>:
    80000912:	1101                	addi	sp,sp,-32
    80000914:	ec22                	sd	s0,24(sp)
    80000916:	1000                	addi	s0,sp,32
    80000918:	fea43423          	sd	a0,-24(s0)
    8000091c:	87ae                	mv	a5,a1
    8000091e:	fef403a3          	sb	a5,-25(s0)
    80000922:	fe843783          	ld	a5,-24(s0)
    80000926:	0007c703          	lbu	a4,0(a5)
    8000092a:	fe744783          	lbu	a5,-25(s0)
    8000092e:	8fd9                	or	a5,a5,a4
    80000930:	0ff7f713          	andi	a4,a5,255
    80000934:	fe843783          	ld	a5,-24(s0)
    80000938:	00e78023          	sb	a4,0(a5)
    8000093c:	0001                	nop
    8000093e:	6462                	ld	s0,24(sp)
    80000940:	6105                	addi	sp,sp,32
    80000942:	8082                	ret

0000000080000944 <_is_last>:
    80000944:	1101                	addi	sp,sp,-32
    80000946:	ec22                	sd	s0,24(sp)
    80000948:	1000                	addi	s0,sp,32
    8000094a:	fea43423          	sd	a0,-24(s0)
    8000094e:	fe843783          	ld	a5,-24(s0)
    80000952:	0007c783          	lbu	a5,0(a5)
    80000956:	2781                	sext.w	a5,a5
    80000958:	8b89                	andi	a5,a5,2
    8000095a:	2781                	sext.w	a5,a5
    8000095c:	c399                	beqz	a5,80000962 <_is_last+0x1e>
    8000095e:	4785                	li	a5,1
    80000960:	a011                	j	80000964 <_is_last+0x20>
    80000962:	4781                	li	a5,0
    80000964:	853e                	mv	a0,a5
    80000966:	6462                	ld	s0,24(sp)
    80000968:	6105                	addi	sp,sp,32
    8000096a:	8082                	ret

000000008000096c <_align_page>:
    8000096c:	7179                	addi	sp,sp,-48
    8000096e:	f422                	sd	s0,40(sp)
    80000970:	1800                	addi	s0,sp,48
    80000972:	87aa                	mv	a5,a0
    80000974:	fcf42e23          	sw	a5,-36(s0)
    80000978:	6785                	lui	a5,0x1
    8000097a:	37fd                	addiw	a5,a5,-1
    8000097c:	fef42623          	sw	a5,-20(s0)
    80000980:	fdc42703          	lw	a4,-36(s0)
    80000984:	fec42783          	lw	a5,-20(s0)
    80000988:	9fb9                	addw	a5,a5,a4
    8000098a:	0007871b          	sext.w	a4,a5
    8000098e:	fec42783          	lw	a5,-20(s0)
    80000992:	fff7c793          	not	a5,a5
    80000996:	2781                	sext.w	a5,a5
    80000998:	8ff9                	and	a5,a5,a4
    8000099a:	2781                	sext.w	a5,a5
    8000099c:	853e                	mv	a0,a5
    8000099e:	7422                	ld	s0,40(sp)
    800009a0:	6145                	addi	sp,sp,48
    800009a2:	8082                	ret

00000000800009a4 <page_init>:
    800009a4:	1101                	addi	sp,sp,-32
    800009a6:	ec06                	sd	ra,24(sp)
    800009a8:	e822                	sd	s0,16(sp)
    800009aa:	1000                	addi	s0,sp,32
    800009ac:	00001797          	auipc	a5,0x1
    800009b0:	6a47b783          	ld	a5,1700(a5) # 80002050 <_GLOBAL_OFFSET_TABLE_+0x48>
    800009b4:	439c                	lw	a5,0(a5)
    800009b6:	00c7d79b          	srliw	a5,a5,0xc
    800009ba:	2781                	sext.w	a5,a5
    800009bc:	37e1                	addiw	a5,a5,-8
    800009be:	0007871b          	sext.w	a4,a5
    800009c2:	00002797          	auipc	a5,0x2
    800009c6:	ac678793          	addi	a5,a5,-1338 # 80002488 <_num_pages>
    800009ca:	c398                	sw	a4,0(a5)
    800009cc:	00001797          	auipc	a5,0x1
    800009d0:	6ac7b783          	ld	a5,1708(a5) # 80002078 <_GLOBAL_OFFSET_TABLE_+0x70>
    800009d4:	4398                	lw	a4,0(a5)
    800009d6:	00001797          	auipc	a5,0x1
    800009da:	67a7b783          	ld	a5,1658(a5) # 80002050 <_GLOBAL_OFFSET_TABLE_+0x48>
    800009de:	4390                	lw	a2,0(a5)
    800009e0:	00002797          	auipc	a5,0x2
    800009e4:	aa878793          	addi	a5,a5,-1368 # 80002488 <_num_pages>
    800009e8:	439c                	lw	a5,0(a5)
    800009ea:	86be                	mv	a3,a5
    800009ec:	85ba                	mv	a1,a4
    800009ee:	00001517          	auipc	a0,0x1
    800009f2:	b4250513          	addi	a0,a0,-1214 # 80001530 <BSS_END+0xbc>
    800009f6:	e5dff0ef          	jal	ra,80000852 <printf>
    800009fa:	00001797          	auipc	a5,0x1
    800009fe:	67e7b783          	ld	a5,1662(a5) # 80002078 <_GLOBAL_OFFSET_TABLE_+0x70>
    80000a02:	439c                	lw	a5,0(a5)
    80000a04:	1782                	slli	a5,a5,0x20
    80000a06:	9381                	srli	a5,a5,0x20
    80000a08:	fef43423          	sd	a5,-24(s0)
    80000a0c:	fe042223          	sw	zero,-28(s0)
    80000a10:	a839                	j	80000a2e <page_init+0x8a>
    80000a12:	fe843503          	ld	a0,-24(s0)
    80000a16:	ebbff0ef          	jal	ra,800008d0 <_clear>
    80000a1a:	fe843783          	ld	a5,-24(s0)
    80000a1e:	0785                	addi	a5,a5,1
    80000a20:	fef43423          	sd	a5,-24(s0)
    80000a24:	fe442783          	lw	a5,-28(s0)
    80000a28:	2785                	addiw	a5,a5,1
    80000a2a:	fef42223          	sw	a5,-28(s0)
    80000a2e:	fe442703          	lw	a4,-28(s0)
    80000a32:	00002797          	auipc	a5,0x2
    80000a36:	a5678793          	addi	a5,a5,-1450 # 80002488 <_num_pages>
    80000a3a:	439c                	lw	a5,0(a5)
    80000a3c:	fcf76be3          	bltu	a4,a5,80000a12 <page_init+0x6e>
    80000a40:	00001797          	auipc	a5,0x1
    80000a44:	6387b783          	ld	a5,1592(a5) # 80002078 <_GLOBAL_OFFSET_TABLE_+0x70>
    80000a48:	4398                	lw	a4,0(a5)
    80000a4a:	67a1                	lui	a5,0x8
    80000a4c:	9fb9                	addw	a5,a5,a4
    80000a4e:	2781                	sext.w	a5,a5
    80000a50:	853e                	mv	a0,a5
    80000a52:	f1bff0ef          	jal	ra,8000096c <_align_page>
    80000a56:	87aa                	mv	a5,a0
    80000a58:	0007871b          	sext.w	a4,a5
    80000a5c:	00002797          	auipc	a5,0x2
    80000a60:	a2478793          	addi	a5,a5,-1500 # 80002480 <_alloc_start>
    80000a64:	c398                	sw	a4,0(a5)
    80000a66:	00002797          	auipc	a5,0x2
    80000a6a:	a2278793          	addi	a5,a5,-1502 # 80002488 <_num_pages>
    80000a6e:	439c                	lw	a5,0(a5)
    80000a70:	00c7979b          	slliw	a5,a5,0xc
    80000a74:	0007871b          	sext.w	a4,a5
    80000a78:	00002797          	auipc	a5,0x2
    80000a7c:	a0878793          	addi	a5,a5,-1528 # 80002480 <_alloc_start>
    80000a80:	439c                	lw	a5,0(a5)
    80000a82:	9fb9                	addw	a5,a5,a4
    80000a84:	0007871b          	sext.w	a4,a5
    80000a88:	00002797          	auipc	a5,0x2
    80000a8c:	9fc78793          	addi	a5,a5,-1540 # 80002484 <_alloc_end>
    80000a90:	c398                	sw	a4,0(a5)
    80000a92:	00001797          	auipc	a5,0x1
    80000a96:	5ae7b783          	ld	a5,1454(a5) # 80002040 <_GLOBAL_OFFSET_TABLE_+0x38>
    80000a9a:	4398                	lw	a4,0(a5)
    80000a9c:	00001797          	auipc	a5,0x1
    80000aa0:	5947b783          	ld	a5,1428(a5) # 80002030 <_GLOBAL_OFFSET_TABLE_+0x28>
    80000aa4:	439c                	lw	a5,0(a5)
    80000aa6:	863e                	mv	a2,a5
    80000aa8:	85ba                	mv	a1,a4
    80000aaa:	00001517          	auipc	a0,0x1
    80000aae:	abe50513          	addi	a0,a0,-1346 # 80001568 <BSS_END+0xf4>
    80000ab2:	da1ff0ef          	jal	ra,80000852 <printf>
    80000ab6:	00001797          	auipc	a5,0x1
    80000aba:	5b27b783          	ld	a5,1458(a5) # 80002068 <_GLOBAL_OFFSET_TABLE_+0x60>
    80000abe:	4398                	lw	a4,0(a5)
    80000ac0:	00001797          	auipc	a5,0x1
    80000ac4:	5887b783          	ld	a5,1416(a5) # 80002048 <_GLOBAL_OFFSET_TABLE_+0x40>
    80000ac8:	439c                	lw	a5,0(a5)
    80000aca:	863e                	mv	a2,a5
    80000acc:	85ba                	mv	a1,a4
    80000ace:	00001517          	auipc	a0,0x1
    80000ad2:	ab250513          	addi	a0,a0,-1358 # 80001580 <BSS_END+0x10c>
    80000ad6:	d7dff0ef          	jal	ra,80000852 <printf>
    80000ada:	00001797          	auipc	a5,0x1
    80000ade:	5967b783          	ld	a5,1430(a5) # 80002070 <_GLOBAL_OFFSET_TABLE_+0x68>
    80000ae2:	4398                	lw	a4,0(a5)
    80000ae4:	00001797          	auipc	a5,0x1
    80000ae8:	5547b783          	ld	a5,1364(a5) # 80002038 <_GLOBAL_OFFSET_TABLE_+0x30>
    80000aec:	439c                	lw	a5,0(a5)
    80000aee:	863e                	mv	a2,a5
    80000af0:	85ba                	mv	a1,a4
    80000af2:	00001517          	auipc	a0,0x1
    80000af6:	aa650513          	addi	a0,a0,-1370 # 80001598 <BSS_END+0x124>
    80000afa:	d59ff0ef          	jal	ra,80000852 <printf>
    80000afe:	00001797          	auipc	a5,0x1
    80000b02:	51a7b783          	ld	a5,1306(a5) # 80002018 <_GLOBAL_OFFSET_TABLE_+0x10>
    80000b06:	4398                	lw	a4,0(a5)
    80000b08:	00001797          	auipc	a5,0x1
    80000b0c:	5087b783          	ld	a5,1288(a5) # 80002010 <_GLOBAL_OFFSET_TABLE_+0x8>
    80000b10:	439c                	lw	a5,0(a5)
    80000b12:	863e                	mv	a2,a5
    80000b14:	85ba                	mv	a1,a4
    80000b16:	00001517          	auipc	a0,0x1
    80000b1a:	a9a50513          	addi	a0,a0,-1382 # 800015b0 <BSS_END+0x13c>
    80000b1e:	d35ff0ef          	jal	ra,80000852 <printf>
    80000b22:	00002797          	auipc	a5,0x2
    80000b26:	95e78793          	addi	a5,a5,-1698 # 80002480 <_alloc_start>
    80000b2a:	4398                	lw	a4,0(a5)
    80000b2c:	00002797          	auipc	a5,0x2
    80000b30:	95878793          	addi	a5,a5,-1704 # 80002484 <_alloc_end>
    80000b34:	439c                	lw	a5,0(a5)
    80000b36:	863e                	mv	a2,a5
    80000b38:	85ba                	mv	a1,a4
    80000b3a:	00001517          	auipc	a0,0x1
    80000b3e:	a8e50513          	addi	a0,a0,-1394 # 800015c8 <BSS_END+0x154>
    80000b42:	d11ff0ef          	jal	ra,80000852 <printf>
    80000b46:	0001                	nop
    80000b48:	60e2                	ld	ra,24(sp)
    80000b4a:	6442                	ld	s0,16(sp)
    80000b4c:	6105                	addi	sp,sp,32
    80000b4e:	8082                	ret

0000000080000b50 <page_alloc>:
    80000b50:	711d                	addi	sp,sp,-96
    80000b52:	ec86                	sd	ra,88(sp)
    80000b54:	e8a2                	sd	s0,80(sp)
    80000b56:	1080                	addi	s0,sp,96
    80000b58:	87aa                	mv	a5,a0
    80000b5a:	faf42623          	sw	a5,-84(s0)
    80000b5e:	fe042623          	sw	zero,-20(s0)
    80000b62:	00001797          	auipc	a5,0x1
    80000b66:	5167b783          	ld	a5,1302(a5) # 80002078 <_GLOBAL_OFFSET_TABLE_+0x70>
    80000b6a:	439c                	lw	a5,0(a5)
    80000b6c:	1782                	slli	a5,a5,0x20
    80000b6e:	9381                	srli	a5,a5,0x20
    80000b70:	fef43023          	sd	a5,-32(s0)
    80000b74:	fc042e23          	sw	zero,-36(s0)
    80000b78:	a8fd                	j	80000c76 <page_alloc+0x126>
    80000b7a:	fe043503          	ld	a0,-32(s0)
    80000b7e:	d6dff0ef          	jal	ra,800008ea <_is_free>
    80000b82:	87aa                	mv	a5,a0
    80000b84:	cff9                	beqz	a5,80000c62 <page_alloc+0x112>
    80000b86:	4785                	li	a5,1
    80000b88:	fef42623          	sw	a5,-20(s0)
    80000b8c:	fe043783          	ld	a5,-32(s0)
    80000b90:	fcf43823          	sd	a5,-48(s0)
    80000b94:	fdc42783          	lw	a5,-36(s0)
    80000b98:	fcf42623          	sw	a5,-52(s0)
    80000b9c:	a025                	j	80000bc4 <page_alloc+0x74>
    80000b9e:	fd043503          	ld	a0,-48(s0)
    80000ba2:	d49ff0ef          	jal	ra,800008ea <_is_free>
    80000ba6:	87aa                	mv	a5,a0
    80000ba8:	e781                	bnez	a5,80000bb0 <page_alloc+0x60>
    80000baa:	fe042623          	sw	zero,-20(s0)
    80000bae:	a03d                	j	80000bdc <page_alloc+0x8c>
    80000bb0:	fd043783          	ld	a5,-48(s0)
    80000bb4:	0785                	addi	a5,a5,1
    80000bb6:	fcf43823          	sd	a5,-48(s0)
    80000bba:	fcc42783          	lw	a5,-52(s0)
    80000bbe:	2785                	addiw	a5,a5,1
    80000bc0:	fcf42623          	sw	a5,-52(s0)
    80000bc4:	fdc42703          	lw	a4,-36(s0)
    80000bc8:	fac42783          	lw	a5,-84(s0)
    80000bcc:	9fb9                	addw	a5,a5,a4
    80000bce:	0007871b          	sext.w	a4,a5
    80000bd2:	fcc42783          	lw	a5,-52(s0)
    80000bd6:	2781                	sext.w	a5,a5
    80000bd8:	fce7c3e3          	blt	a5,a4,80000b9e <page_alloc+0x4e>
    80000bdc:	fec42783          	lw	a5,-20(s0)
    80000be0:	2781                	sext.w	a5,a5
    80000be2:	c3c1                	beqz	a5,80000c62 <page_alloc+0x112>
    80000be4:	fe043783          	ld	a5,-32(s0)
    80000be8:	fcf43023          	sd	a5,-64(s0)
    80000bec:	fdc42783          	lw	a5,-36(s0)
    80000bf0:	faf42e23          	sw	a5,-68(s0)
    80000bf4:	a005                	j	80000c14 <page_alloc+0xc4>
    80000bf6:	4585                	li	a1,1
    80000bf8:	fc043503          	ld	a0,-64(s0)
    80000bfc:	d17ff0ef          	jal	ra,80000912 <_set_flag>
    80000c00:	fc043783          	ld	a5,-64(s0)
    80000c04:	0785                	addi	a5,a5,1
    80000c06:	fcf43023          	sd	a5,-64(s0)
    80000c0a:	fbc42783          	lw	a5,-68(s0)
    80000c0e:	2785                	addiw	a5,a5,1
    80000c10:	faf42e23          	sw	a5,-68(s0)
    80000c14:	fdc42703          	lw	a4,-36(s0)
    80000c18:	fac42783          	lw	a5,-84(s0)
    80000c1c:	9fb9                	addw	a5,a5,a4
    80000c1e:	0007871b          	sext.w	a4,a5
    80000c22:	fbc42783          	lw	a5,-68(s0)
    80000c26:	2781                	sext.w	a5,a5
    80000c28:	fce7c7e3          	blt	a5,a4,80000bf6 <page_alloc+0xa6>
    80000c2c:	fc043783          	ld	a5,-64(s0)
    80000c30:	17fd                	addi	a5,a5,-1
    80000c32:	fcf43023          	sd	a5,-64(s0)
    80000c36:	4589                	li	a1,2
    80000c38:	fc043503          	ld	a0,-64(s0)
    80000c3c:	cd7ff0ef          	jal	ra,80000912 <_set_flag>
    80000c40:	fdc42783          	lw	a5,-36(s0)
    80000c44:	00c7979b          	slliw	a5,a5,0xc
    80000c48:	2781                	sext.w	a5,a5
    80000c4a:	0007871b          	sext.w	a4,a5
    80000c4e:	00002797          	auipc	a5,0x2
    80000c52:	83278793          	addi	a5,a5,-1998 # 80002480 <_alloc_start>
    80000c56:	439c                	lw	a5,0(a5)
    80000c58:	9fb9                	addw	a5,a5,a4
    80000c5a:	2781                	sext.w	a5,a5
    80000c5c:	1782                	slli	a5,a5,0x20
    80000c5e:	9381                	srli	a5,a5,0x20
    80000c60:	a81d                	j	80000c96 <page_alloc+0x146>
    80000c62:	fe043783          	ld	a5,-32(s0)
    80000c66:	0785                	addi	a5,a5,1
    80000c68:	fef43023          	sd	a5,-32(s0)
    80000c6c:	fdc42783          	lw	a5,-36(s0)
    80000c70:	2785                	addiw	a5,a5,1
    80000c72:	fcf42e23          	sw	a5,-36(s0)
    80000c76:	00002797          	auipc	a5,0x2
    80000c7a:	81278793          	addi	a5,a5,-2030 # 80002488 <_num_pages>
    80000c7e:	4398                	lw	a4,0(a5)
    80000c80:	fac42783          	lw	a5,-84(s0)
    80000c84:	40f707bb          	subw	a5,a4,a5
    80000c88:	0007871b          	sext.w	a4,a5
    80000c8c:	fdc42783          	lw	a5,-36(s0)
    80000c90:	eee7e5e3          	bltu	a5,a4,80000b7a <page_alloc+0x2a>
    80000c94:	4781                	li	a5,0
    80000c96:	853e                	mv	a0,a5
    80000c98:	60e6                	ld	ra,88(sp)
    80000c9a:	6446                	ld	s0,80(sp)
    80000c9c:	6125                	addi	sp,sp,96
    80000c9e:	8082                	ret

0000000080000ca0 <page_free>:
    80000ca0:	7179                	addi	sp,sp,-48
    80000ca2:	f406                	sd	ra,40(sp)
    80000ca4:	f022                	sd	s0,32(sp)
    80000ca6:	1800                	addi	s0,sp,48
    80000ca8:	fca43c23          	sd	a0,-40(s0)
    80000cac:	fd843783          	ld	a5,-40(s0)
    80000cb0:	c7d9                	beqz	a5,80000d3e <page_free+0x9e>
    80000cb2:	fd843783          	ld	a5,-40(s0)
    80000cb6:	0007871b          	sext.w	a4,a5
    80000cba:	00001797          	auipc	a5,0x1
    80000cbe:	7ca78793          	addi	a5,a5,1994 # 80002484 <_alloc_end>
    80000cc2:	439c                	lw	a5,0(a5)
    80000cc4:	06f77d63          	bleu	a5,a4,80000d3e <page_free+0x9e>
    80000cc8:	00001797          	auipc	a5,0x1
    80000ccc:	3b07b783          	ld	a5,944(a5) # 80002078 <_GLOBAL_OFFSET_TABLE_+0x70>
    80000cd0:	439c                	lw	a5,0(a5)
    80000cd2:	1782                	slli	a5,a5,0x20
    80000cd4:	9381                	srli	a5,a5,0x20
    80000cd6:	fef43423          	sd	a5,-24(s0)
    80000cda:	fd843783          	ld	a5,-40(s0)
    80000cde:	0007871b          	sext.w	a4,a5
    80000ce2:	00001797          	auipc	a5,0x1
    80000ce6:	79e78793          	addi	a5,a5,1950 # 80002480 <_alloc_start>
    80000cea:	439c                	lw	a5,0(a5)
    80000cec:	40f707bb          	subw	a5,a4,a5
    80000cf0:	2781                	sext.w	a5,a5
    80000cf2:	00c7d79b          	srliw	a5,a5,0xc
    80000cf6:	2781                	sext.w	a5,a5
    80000cf8:	1782                	slli	a5,a5,0x20
    80000cfa:	9381                	srli	a5,a5,0x20
    80000cfc:	fe843703          	ld	a4,-24(s0)
    80000d00:	97ba                	add	a5,a5,a4
    80000d02:	fef43423          	sd	a5,-24(s0)
    80000d06:	a02d                	j	80000d30 <page_free+0x90>
    80000d08:	fe843503          	ld	a0,-24(s0)
    80000d0c:	c39ff0ef          	jal	ra,80000944 <_is_last>
    80000d10:	87aa                	mv	a5,a0
    80000d12:	c791                	beqz	a5,80000d1e <page_free+0x7e>
    80000d14:	fe843503          	ld	a0,-24(s0)
    80000d18:	bb9ff0ef          	jal	ra,800008d0 <_clear>
    80000d1c:	a015                	j	80000d40 <page_free+0xa0>
    80000d1e:	fe843503          	ld	a0,-24(s0)
    80000d22:	bafff0ef          	jal	ra,800008d0 <_clear>
    80000d26:	fe843783          	ld	a5,-24(s0)
    80000d2a:	0785                	addi	a5,a5,1
    80000d2c:	fef43423          	sd	a5,-24(s0)
    80000d30:	fe843503          	ld	a0,-24(s0)
    80000d34:	bb7ff0ef          	jal	ra,800008ea <_is_free>
    80000d38:	87aa                	mv	a5,a0
    80000d3a:	d7f9                	beqz	a5,80000d08 <page_free+0x68>
    80000d3c:	a011                	j	80000d40 <page_free+0xa0>
    80000d3e:	0001                	nop
    80000d40:	70a2                	ld	ra,40(sp)
    80000d42:	7402                	ld	s0,32(sp)
    80000d44:	6145                	addi	sp,sp,48
    80000d46:	8082                	ret

0000000080000d48 <page_test>:
    80000d48:	7179                	addi	sp,sp,-48
    80000d4a:	f406                	sd	ra,40(sp)
    80000d4c:	f022                	sd	s0,32(sp)
    80000d4e:	1800                	addi	s0,sp,48
    80000d50:	4509                	li	a0,2
    80000d52:	dffff0ef          	jal	ra,80000b50 <page_alloc>
    80000d56:	fea43423          	sd	a0,-24(s0)
    80000d5a:	fe843583          	ld	a1,-24(s0)
    80000d5e:	00001517          	auipc	a0,0x1
    80000d62:	88250513          	addi	a0,a0,-1918 # 800015e0 <BSS_END+0x16c>
    80000d66:	aedff0ef          	jal	ra,80000852 <printf>
    80000d6a:	451d                	li	a0,7
    80000d6c:	de5ff0ef          	jal	ra,80000b50 <page_alloc>
    80000d70:	fea43023          	sd	a0,-32(s0)
    80000d74:	fe043583          	ld	a1,-32(s0)
    80000d78:	00001517          	auipc	a0,0x1
    80000d7c:	87850513          	addi	a0,a0,-1928 # 800015f0 <BSS_END+0x17c>
    80000d80:	ad3ff0ef          	jal	ra,80000852 <printf>
    80000d84:	fe043503          	ld	a0,-32(s0)
    80000d88:	f19ff0ef          	jal	ra,80000ca0 <page_free>
    80000d8c:	4511                	li	a0,4
    80000d8e:	dc3ff0ef          	jal	ra,80000b50 <page_alloc>
    80000d92:	fca43c23          	sd	a0,-40(s0)
    80000d96:	fd843583          	ld	a1,-40(s0)
    80000d9a:	00001517          	auipc	a0,0x1
    80000d9e:	86650513          	addi	a0,a0,-1946 # 80001600 <BSS_END+0x18c>
    80000da2:	ab1ff0ef          	jal	ra,80000852 <printf>
    80000da6:	0001                	nop
    80000da8:	70a2                	ld	ra,40(sp)
    80000daa:	7402                	ld	s0,32(sp)
    80000dac:	6145                	addi	sp,sp,48
    80000dae:	8082                	ret

0000000080000db0 <r_mhartid>:
    80000db0:	1101                	addi	sp,sp,-32
    80000db2:	ec22                	sd	s0,24(sp)
    80000db4:	1000                	addi	s0,sp,32
    80000db6:	f14027f3          	csrr	a5,mhartid
    80000dba:	fef43423          	sd	a5,-24(s0)
    80000dbe:	fe843783          	ld	a5,-24(s0)
    80000dc2:	853e                	mv	a0,a5
    80000dc4:	6462                	ld	s0,24(sp)
    80000dc6:	6105                	addi	sp,sp,32
    80000dc8:	8082                	ret

0000000080000dca <w_mscratch>:
    80000dca:	1101                	addi	sp,sp,-32
    80000dcc:	ec22                	sd	s0,24(sp)
    80000dce:	1000                	addi	s0,sp,32
    80000dd0:	fea43423          	sd	a0,-24(s0)
    80000dd4:	fe843783          	ld	a5,-24(s0)
    80000dd8:	34079073          	csrw	mscratch,a5
    80000ddc:	0001                	nop
    80000dde:	6462                	ld	s0,24(sp)
    80000de0:	6105                	addi	sp,sp,32
    80000de2:	8082                	ret

0000000080000de4 <r_mie>:
    80000de4:	1101                	addi	sp,sp,-32
    80000de6:	ec22                	sd	s0,24(sp)
    80000de8:	1000                	addi	s0,sp,32
    80000dea:	304027f3          	csrr	a5,mie
    80000dee:	fef43423          	sd	a5,-24(s0)
    80000df2:	fe843783          	ld	a5,-24(s0)
    80000df6:	853e                	mv	a0,a5
    80000df8:	6462                	ld	s0,24(sp)
    80000dfa:	6105                	addi	sp,sp,32
    80000dfc:	8082                	ret

0000000080000dfe <w_mie>:
    80000dfe:	1101                	addi	sp,sp,-32
    80000e00:	ec22                	sd	s0,24(sp)
    80000e02:	1000                	addi	s0,sp,32
    80000e04:	fea43423          	sd	a0,-24(s0)
    80000e08:	fe843783          	ld	a5,-24(s0)
    80000e0c:	30479073          	csrw	mie,a5
    80000e10:	0001                	nop
    80000e12:	6462                	ld	s0,24(sp)
    80000e14:	6105                	addi	sp,sp,32
    80000e16:	8082                	ret

0000000080000e18 <sched_init>:
    80000e18:	1141                	addi	sp,sp,-16
    80000e1a:	e406                	sd	ra,8(sp)
    80000e1c:	e022                	sd	s0,0(sp)
    80000e1e:	0800                	addi	s0,sp,16
    80000e20:	4501                	li	a0,0
    80000e22:	fa9ff0ef          	jal	ra,80000dca <w_mscratch>
    80000e26:	fbfff0ef          	jal	ra,80000de4 <r_mie>
    80000e2a:	87aa                	mv	a5,a0
    80000e2c:	0087e793          	ori	a5,a5,8
    80000e30:	853e                	mv	a0,a5
    80000e32:	fcdff0ef          	jal	ra,80000dfe <w_mie>
    80000e36:	0001                	nop
    80000e38:	60a2                	ld	ra,8(sp)
    80000e3a:	6402                	ld	s0,0(sp)
    80000e3c:	0141                	addi	sp,sp,16
    80000e3e:	8082                	ret

0000000080000e40 <schedule>:
    80000e40:	1101                	addi	sp,sp,-32
    80000e42:	ec06                	sd	ra,24(sp)
    80000e44:	e822                	sd	s0,16(sp)
    80000e46:	1000                	addi	s0,sp,32
    80000e48:	00001797          	auipc	a5,0x1
    80000e4c:	64478793          	addi	a5,a5,1604 # 8000248c <_top>
    80000e50:	439c                	lw	a5,0(a5)
    80000e52:	00f04963          	bgtz	a5,80000e64 <schedule+0x24>
    80000e56:	00000517          	auipc	a0,0x0
    80000e5a:	7ba50513          	addi	a0,a0,1978 # 80001610 <BSS_END+0x19c>
    80000e5e:	a45ff0ef          	jal	ra,800008a2 <panic>
    80000e62:	a889                	j	80000eb4 <schedule+0x74>
    80000e64:	00001797          	auipc	a5,0x1
    80000e68:	19c78793          	addi	a5,a5,412 # 80002000 <etext>
    80000e6c:	439c                	lw	a5,0(a5)
    80000e6e:	2785                	addiw	a5,a5,1
    80000e70:	0007871b          	sext.w	a4,a5
    80000e74:	00001797          	auipc	a5,0x1
    80000e78:	61878793          	addi	a5,a5,1560 # 8000248c <_top>
    80000e7c:	439c                	lw	a5,0(a5)
    80000e7e:	02f767bb          	remw	a5,a4,a5
    80000e82:	0007871b          	sext.w	a4,a5
    80000e86:	00001797          	auipc	a5,0x1
    80000e8a:	17a78793          	addi	a5,a5,378 # 80002000 <etext>
    80000e8e:	c398                	sw	a4,0(a5)
    80000e90:	00001797          	auipc	a5,0x1
    80000e94:	17078793          	addi	a5,a5,368 # 80002000 <etext>
    80000e98:	439c                	lw	a5,0(a5)
    80000e9a:	00879713          	slli	a4,a5,0x8
    80000e9e:	00001797          	auipc	a5,0x1
    80000ea2:	1e27b783          	ld	a5,482(a5) # 80002080 <_GLOBAL_OFFSET_TABLE_+0x78>
    80000ea6:	97ba                	add	a5,a5,a4
    80000ea8:	fef43423          	sd	a5,-24(s0)
    80000eac:	fe843503          	ld	a0,-24(s0)
    80000eb0:	ab0ff0ef          	jal	ra,80000160 <switch_to>
    80000eb4:	60e2                	ld	ra,24(sp)
    80000eb6:	6442                	ld	s0,16(sp)
    80000eb8:	6105                	addi	sp,sp,32
    80000eba:	8082                	ret

0000000080000ebc <task_create>:
    80000ebc:	1101                	addi	sp,sp,-32
    80000ebe:	ec22                	sd	s0,24(sp)
    80000ec0:	1000                	addi	s0,sp,32
    80000ec2:	fea43423          	sd	a0,-24(s0)
    80000ec6:	00001797          	auipc	a5,0x1
    80000eca:	5c678793          	addi	a5,a5,1478 # 8000248c <_top>
    80000ece:	439c                	lw	a5,0(a5)
    80000ed0:	873e                	mv	a4,a5
    80000ed2:	47a5                	li	a5,9
    80000ed4:	06e7c963          	blt	a5,a4,80000f46 <task_create+0x8a>
    80000ed8:	00001797          	auipc	a5,0x1
    80000edc:	5b478793          	addi	a5,a5,1460 # 8000248c <_top>
    80000ee0:	439c                	lw	a5,0(a5)
    80000ee2:	07aa                	slli	a5,a5,0xa
    80000ee4:	3ff78713          	addi	a4,a5,1023
    80000ee8:	00001797          	auipc	a5,0x1
    80000eec:	1387b783          	ld	a5,312(a5) # 80002020 <_GLOBAL_OFFSET_TABLE_+0x18>
    80000ef0:	973e                	add	a4,a4,a5
    80000ef2:	00001797          	auipc	a5,0x1
    80000ef6:	59a78793          	addi	a5,a5,1434 # 8000248c <_top>
    80000efa:	439c                	lw	a5,0(a5)
    80000efc:	86ba                	mv	a3,a4
    80000efe:	00001717          	auipc	a4,0x1
    80000f02:	18273703          	ld	a4,386(a4) # 80002080 <_GLOBAL_OFFSET_TABLE_+0x78>
    80000f06:	07a2                	slli	a5,a5,0x8
    80000f08:	97ba                	add	a5,a5,a4
    80000f0a:	e794                	sd	a3,8(a5)
    80000f0c:	00001797          	auipc	a5,0x1
    80000f10:	58078793          	addi	a5,a5,1408 # 8000248c <_top>
    80000f14:	439c                	lw	a5,0(a5)
    80000f16:	fe843703          	ld	a4,-24(s0)
    80000f1a:	00001697          	auipc	a3,0x1
    80000f1e:	1666b683          	ld	a3,358(a3) # 80002080 <_GLOBAL_OFFSET_TABLE_+0x78>
    80000f22:	07a2                	slli	a5,a5,0x8
    80000f24:	97b6                	add	a5,a5,a3
    80000f26:	fff8                	sd	a4,248(a5)
    80000f28:	00001797          	auipc	a5,0x1
    80000f2c:	56478793          	addi	a5,a5,1380 # 8000248c <_top>
    80000f30:	439c                	lw	a5,0(a5)
    80000f32:	2785                	addiw	a5,a5,1
    80000f34:	0007871b          	sext.w	a4,a5
    80000f38:	00001797          	auipc	a5,0x1
    80000f3c:	55478793          	addi	a5,a5,1364 # 8000248c <_top>
    80000f40:	c398                	sw	a4,0(a5)
    80000f42:	4781                	li	a5,0
    80000f44:	a011                	j	80000f48 <task_create+0x8c>
    80000f46:	57fd                	li	a5,-1
    80000f48:	853e                	mv	a0,a5
    80000f4a:	6462                	ld	s0,24(sp)
    80000f4c:	6105                	addi	sp,sp,32
    80000f4e:	8082                	ret

0000000080000f50 <task_yield>:
    80000f50:	1101                	addi	sp,sp,-32
    80000f52:	ec06                	sd	ra,24(sp)
    80000f54:	e822                	sd	s0,16(sp)
    80000f56:	1000                	addi	s0,sp,32
    80000f58:	e59ff0ef          	jal	ra,80000db0 <r_mhartid>
    80000f5c:	87aa                	mv	a5,a0
    80000f5e:	fef42623          	sw	a5,-20(s0)
    80000f62:	fec42783          	lw	a5,-20(s0)
    80000f66:	0027979b          	slliw	a5,a5,0x2
    80000f6a:	2781                	sext.w	a5,a5
    80000f6c:	873e                	mv	a4,a5
    80000f6e:	020007b7          	lui	a5,0x2000
    80000f72:	97ba                	add	a5,a5,a4
    80000f74:	873e                	mv	a4,a5
    80000f76:	4785                	li	a5,1
    80000f78:	c31c                	sw	a5,0(a4)
    80000f7a:	0001                	nop
    80000f7c:	60e2                	ld	ra,24(sp)
    80000f7e:	6442                	ld	s0,16(sp)
    80000f80:	6105                	addi	sp,sp,32
    80000f82:	8082                	ret

0000000080000f84 <task_delay>:
    80000f84:	1101                	addi	sp,sp,-32
    80000f86:	ec22                	sd	s0,24(sp)
    80000f88:	1000                	addi	s0,sp,32
    80000f8a:	87aa                	mv	a5,a0
    80000f8c:	fef42623          	sw	a5,-20(s0)
    80000f90:	fec42783          	lw	a5,-20(s0)
    80000f94:	0007871b          	sext.w	a4,a5
    80000f98:	67b1                	lui	a5,0xc
    80000f9a:	3507879b          	addiw	a5,a5,848
    80000f9e:	02f707bb          	mulw	a5,a4,a5
    80000fa2:	2781                	sext.w	a5,a5
    80000fa4:	fef42623          	sw	a5,-20(s0)
    80000fa8:	0001                	nop
    80000faa:	fec42783          	lw	a5,-20(s0)
    80000fae:	2781                	sext.w	a5,a5
    80000fb0:	fff7871b          	addiw	a4,a5,-1
    80000fb4:	2701                	sext.w	a4,a4
    80000fb6:	fee42623          	sw	a4,-20(s0)
    80000fba:	fbe5                	bnez	a5,80000faa <task_delay+0x26>
    80000fbc:	0001                	nop
    80000fbe:	6462                	ld	s0,24(sp)
    80000fc0:	6105                	addi	sp,sp,32
    80000fc2:	8082                	ret

0000000080000fc4 <user_task0>:
    80000fc4:	1141                	addi	sp,sp,-16
    80000fc6:	e406                	sd	ra,8(sp)
    80000fc8:	e022                	sd	s0,0(sp)
    80000fca:	0800                	addi	s0,sp,16
    80000fcc:	00000517          	auipc	a0,0x0
    80000fd0:	67450513          	addi	a0,a0,1652 # 80001640 <BSS_END+0x1cc>
    80000fd4:	b1eff0ef          	jal	ra,800002f2 <uart_puts>
    80000fd8:	f79ff0ef          	jal	ra,80000f50 <task_yield>
    80000fdc:	00000517          	auipc	a0,0x0
    80000fe0:	67c50513          	addi	a0,a0,1660 # 80001658 <BSS_END+0x1e4>
    80000fe4:	b0eff0ef          	jal	ra,800002f2 <uart_puts>
    80000fe8:	00000517          	auipc	a0,0x0
    80000fec:	68850513          	addi	a0,a0,1672 # 80001670 <BSS_END+0x1fc>
    80000ff0:	b02ff0ef          	jal	ra,800002f2 <uart_puts>
    80000ff4:	3e800513          	li	a0,1000
    80000ff8:	f8dff0ef          	jal	ra,80000f84 <task_delay>
    80000ffc:	b7f5                	j	80000fe8 <user_task0+0x24>

0000000080000ffe <user_task1>:
    80000ffe:	1141                	addi	sp,sp,-16
    80001000:	e406                	sd	ra,8(sp)
    80001002:	e022                	sd	s0,0(sp)
    80001004:	0800                	addi	s0,sp,16
    80001006:	00000517          	auipc	a0,0x0
    8000100a:	68250513          	addi	a0,a0,1666 # 80001688 <BSS_END+0x214>
    8000100e:	ae4ff0ef          	jal	ra,800002f2 <uart_puts>
    80001012:	00000517          	auipc	a0,0x0
    80001016:	68e50513          	addi	a0,a0,1678 # 800016a0 <BSS_END+0x22c>
    8000101a:	ad8ff0ef          	jal	ra,800002f2 <uart_puts>
    8000101e:	3e800513          	li	a0,1000
    80001022:	f63ff0ef          	jal	ra,80000f84 <task_delay>
    80001026:	b7f5                	j	80001012 <user_task1+0x14>

0000000080001028 <os_main>:
    80001028:	1141                	addi	sp,sp,-16
    8000102a:	e406                	sd	ra,8(sp)
    8000102c:	e022                	sd	s0,0(sp)
    8000102e:	0800                	addi	s0,sp,16
    80001030:	00000517          	auipc	a0,0x0
    80001034:	f9450513          	addi	a0,a0,-108 # 80000fc4 <user_task0>
    80001038:	e85ff0ef          	jal	ra,80000ebc <task_create>
    8000103c:	00000517          	auipc	a0,0x0
    80001040:	fc250513          	addi	a0,a0,-62 # 80000ffe <user_task1>
    80001044:	e79ff0ef          	jal	ra,80000ebc <task_create>
    80001048:	0001                	nop
    8000104a:	60a2                	ld	ra,8(sp)
    8000104c:	6402                	ld	s0,0(sp)
    8000104e:	0141                	addi	sp,sp,16
    80001050:	8082                	ret

0000000080001052 <r_mhartid>:
    80001052:	1101                	addi	sp,sp,-32
    80001054:	ec22                	sd	s0,24(sp)
    80001056:	1000                	addi	s0,sp,32
    80001058:	f14027f3          	csrr	a5,mhartid
    8000105c:	fef43423          	sd	a5,-24(s0)
    80001060:	fe843783          	ld	a5,-24(s0)
    80001064:	853e                	mv	a0,a5
    80001066:	6462                	ld	s0,24(sp)
    80001068:	6105                	addi	sp,sp,32
    8000106a:	8082                	ret

000000008000106c <w_mtvec>:
    8000106c:	1101                	addi	sp,sp,-32
    8000106e:	ec22                	sd	s0,24(sp)
    80001070:	1000                	addi	s0,sp,32
    80001072:	fea43423          	sd	a0,-24(s0)
    80001076:	fe843783          	ld	a5,-24(s0)
    8000107a:	30579073          	csrw	mtvec,a5
    8000107e:	0001                	nop
    80001080:	6462                	ld	s0,24(sp)
    80001082:	6105                	addi	sp,sp,32
    80001084:	8082                	ret

0000000080001086 <trap_init>:
    80001086:	1141                	addi	sp,sp,-16
    80001088:	e406                	sd	ra,8(sp)
    8000108a:	e022                	sd	s0,0(sp)
    8000108c:	0800                	addi	s0,sp,16
    8000108e:	00001797          	auipc	a5,0x1
    80001092:	fd27b783          	ld	a5,-46(a5) # 80002060 <_GLOBAL_OFFSET_TABLE_+0x58>
    80001096:	853e                	mv	a0,a5
    80001098:	fd5ff0ef          	jal	ra,8000106c <w_mtvec>
    8000109c:	0001                	nop
    8000109e:	60a2                	ld	ra,8(sp)
    800010a0:	6402                	ld	s0,0(sp)
    800010a2:	0141                	addi	sp,sp,16
    800010a4:	8082                	ret

00000000800010a6 <external_interrupt_handler>:
    800010a6:	1101                	addi	sp,sp,-32
    800010a8:	ec06                	sd	ra,24(sp)
    800010aa:	e822                	sd	s0,16(sp)
    800010ac:	1000                	addi	s0,sp,32
    800010ae:	21a000ef          	jal	ra,800012c8 <plic_claim>
    800010b2:	87aa                	mv	a5,a0
    800010b4:	fef42623          	sw	a5,-20(s0)
    800010b8:	fec42783          	lw	a5,-20(s0)
    800010bc:	0007871b          	sext.w	a4,a5
    800010c0:	47a9                	li	a5,10
    800010c2:	00f71563          	bne	a4,a5,800010cc <external_interrupt_handler+0x26>
    800010c6:	a9aff0ef          	jal	ra,80000360 <uart_isr>
    800010ca:	a831                	j	800010e6 <external_interrupt_handler+0x40>
    800010cc:	fec42783          	lw	a5,-20(s0)
    800010d0:	2781                	sext.w	a5,a5
    800010d2:	cb91                	beqz	a5,800010e6 <external_interrupt_handler+0x40>
    800010d4:	fec42783          	lw	a5,-20(s0)
    800010d8:	85be                	mv	a1,a5
    800010da:	00000517          	auipc	a0,0x0
    800010de:	5de50513          	addi	a0,a0,1502 # 800016b8 <BSS_END+0x244>
    800010e2:	f70ff0ef          	jal	ra,80000852 <printf>
    800010e6:	fec42783          	lw	a5,-20(s0)
    800010ea:	2781                	sext.w	a5,a5
    800010ec:	c791                	beqz	a5,800010f8 <external_interrupt_handler+0x52>
    800010ee:	fec42783          	lw	a5,-20(s0)
    800010f2:	853e                	mv	a0,a5
    800010f4:	20e000ef          	jal	ra,80001302 <plic_complete>
    800010f8:	0001                	nop
    800010fa:	60e2                	ld	ra,24(sp)
    800010fc:	6442                	ld	s0,16(sp)
    800010fe:	6105                	addi	sp,sp,32
    80001100:	8082                	ret

0000000080001102 <trap_handler>:
    80001102:	7139                	addi	sp,sp,-64
    80001104:	fc06                	sd	ra,56(sp)
    80001106:	f822                	sd	s0,48(sp)
    80001108:	0080                	addi	s0,sp,64
    8000110a:	fca43423          	sd	a0,-56(s0)
    8000110e:	fcb43023          	sd	a1,-64(s0)
    80001112:	fc843783          	ld	a5,-56(s0)
    80001116:	fef43423          	sd	a5,-24(s0)
    8000111a:	fc043703          	ld	a4,-64(s0)
    8000111e:	6785                	lui	a5,0x1
    80001120:	17fd                	addi	a5,a5,-1
    80001122:	8ff9                	and	a5,a5,a4
    80001124:	fef43023          	sd	a5,-32(s0)
    80001128:	fc043783          	ld	a5,-64(s0)
    8000112c:	0807d363          	bgez	a5,800011b2 <trap_handler+0xb0>
    80001130:	fc043703          	ld	a4,-64(s0)
    80001134:	57fd                	li	a5,-1
    80001136:	8385                	srli	a5,a5,0x1
    80001138:	8ff9                	and	a5,a5,a4
    8000113a:	471d                	li	a4,7
    8000113c:	04e78163          	beq	a5,a4,8000117e <trap_handler+0x7c>
    80001140:	472d                	li	a4,11
    80001142:	04e78763          	beq	a5,a4,80001190 <trap_handler+0x8e>
    80001146:	470d                	li	a4,3
    80001148:	04e79d63          	bne	a5,a4,800011a2 <trap_handler+0xa0>
    8000114c:	00000517          	auipc	a0,0x0
    80001150:	58c50513          	addi	a0,a0,1420 # 800016d8 <BSS_END+0x264>
    80001154:	99eff0ef          	jal	ra,800002f2 <uart_puts>
    80001158:	efbff0ef          	jal	ra,80001052 <r_mhartid>
    8000115c:	87aa                	mv	a5,a0
    8000115e:	fcf42e23          	sw	a5,-36(s0)
    80001162:	fdc42783          	lw	a5,-36(s0)
    80001166:	0027979b          	slliw	a5,a5,0x2
    8000116a:	2781                	sext.w	a5,a5
    8000116c:	873e                	mv	a4,a5
    8000116e:	020007b7          	lui	a5,0x2000
    80001172:	97ba                	add	a5,a5,a4
    80001174:	0007a023          	sw	zero,0(a5) # 2000000 <REGBYTES+0x1fffff8>
    80001178:	cc9ff0ef          	jal	ra,80000e40 <schedule>
    8000117c:	a085                	j	800011dc <trap_handler+0xda>
    8000117e:	00000517          	auipc	a0,0x0
    80001182:	57250513          	addi	a0,a0,1394 # 800016f0 <BSS_END+0x27c>
    80001186:	96cff0ef          	jal	ra,800002f2 <uart_puts>
    8000118a:	272000ef          	jal	ra,800013fc <timer_handler>
    8000118e:	a0b9                	j	800011dc <trap_handler+0xda>
    80001190:	00000517          	auipc	a0,0x0
    80001194:	57850513          	addi	a0,a0,1400 # 80001708 <BSS_END+0x294>
    80001198:	95aff0ef          	jal	ra,800002f2 <uart_puts>
    8000119c:	f0bff0ef          	jal	ra,800010a6 <external_interrupt_handler>
    800011a0:	a835                	j	800011dc <trap_handler+0xda>
    800011a2:	00000517          	auipc	a0,0x0
    800011a6:	57e50513          	addi	a0,a0,1406 # 80001720 <BSS_END+0x2ac>
    800011aa:	948ff0ef          	jal	ra,800002f2 <uart_puts>
    800011ae:	0001                	nop
    800011b0:	a035                	j	800011dc <trap_handler+0xda>
    800011b2:	fe843603          	ld	a2,-24(s0)
    800011b6:	fe043583          	ld	a1,-32(s0)
    800011ba:	00000517          	auipc	a0,0x0
    800011be:	58650513          	addi	a0,a0,1414 # 80001740 <BSS_END+0x2cc>
    800011c2:	e90ff0ef          	jal	ra,80000852 <printf>
    800011c6:	00000517          	auipc	a0,0x0
    800011ca:	5aa50513          	addi	a0,a0,1450 # 80001770 <BSS_END+0x2fc>
    800011ce:	ed4ff0ef          	jal	ra,800008a2 <panic>
    800011d2:	fe843783          	ld	a5,-24(s0)
    800011d6:	0791                	addi	a5,a5,4
    800011d8:	fef43423          	sd	a5,-24(s0)
    800011dc:	fe843783          	ld	a5,-24(s0)
    800011e0:	853e                	mv	a0,a5
    800011e2:	70e2                	ld	ra,56(sp)
    800011e4:	7442                	ld	s0,48(sp)
    800011e6:	6121                	addi	sp,sp,64
    800011e8:	8082                	ret

00000000800011ea <trap_test>:
    800011ea:	1141                	addi	sp,sp,-16
    800011ec:	e406                	sd	ra,8(sp)
    800011ee:	e022                	sd	s0,0(sp)
    800011f0:	0800                	addi	s0,sp,16
    800011f2:	4701                	li	a4,0
    800011f4:	06400793          	li	a5,100
    800011f8:	c31c                	sw	a5,0(a4)
    800011fa:	00000517          	auipc	a0,0x0
    800011fe:	58e50513          	addi	a0,a0,1422 # 80001788 <BSS_END+0x314>
    80001202:	8f0ff0ef          	jal	ra,800002f2 <uart_puts>
    80001206:	0001                	nop
    80001208:	60a2                	ld	ra,8(sp)
    8000120a:	6402                	ld	s0,0(sp)
    8000120c:	0141                	addi	sp,sp,16
    8000120e:	8082                	ret

0000000080001210 <r_tp>:
    80001210:	1101                	addi	sp,sp,-32
    80001212:	ec22                	sd	s0,24(sp)
    80001214:	1000                	addi	s0,sp,32
    80001216:	8792                	mv	a5,tp
    80001218:	fef43423          	sd	a5,-24(s0)
    8000121c:	fe843783          	ld	a5,-24(s0)
    80001220:	853e                	mv	a0,a5
    80001222:	6462                	ld	s0,24(sp)
    80001224:	6105                	addi	sp,sp,32
    80001226:	8082                	ret

0000000080001228 <r_mie>:
    80001228:	1101                	addi	sp,sp,-32
    8000122a:	ec22                	sd	s0,24(sp)
    8000122c:	1000                	addi	s0,sp,32
    8000122e:	304027f3          	csrr	a5,mie
    80001232:	fef43423          	sd	a5,-24(s0)
    80001236:	fe843783          	ld	a5,-24(s0)
    8000123a:	853e                	mv	a0,a5
    8000123c:	6462                	ld	s0,24(sp)
    8000123e:	6105                	addi	sp,sp,32
    80001240:	8082                	ret

0000000080001242 <w_mie>:
    80001242:	1101                	addi	sp,sp,-32
    80001244:	ec22                	sd	s0,24(sp)
    80001246:	1000                	addi	s0,sp,32
    80001248:	fea43423          	sd	a0,-24(s0)
    8000124c:	fe843783          	ld	a5,-24(s0)
    80001250:	30479073          	csrw	mie,a5
    80001254:	0001                	nop
    80001256:	6462                	ld	s0,24(sp)
    80001258:	6105                	addi	sp,sp,32
    8000125a:	8082                	ret

000000008000125c <plic_init>:
    8000125c:	1101                	addi	sp,sp,-32
    8000125e:	ec06                	sd	ra,24(sp)
    80001260:	e822                	sd	s0,16(sp)
    80001262:	1000                	addi	s0,sp,32
    80001264:	fadff0ef          	jal	ra,80001210 <r_tp>
    80001268:	87aa                	mv	a5,a0
    8000126a:	fef42623          	sw	a5,-20(s0)
    8000126e:	0c0007b7          	lui	a5,0xc000
    80001272:	02878793          	addi	a5,a5,40 # c000028 <_heap_size+0x40024bc>
    80001276:	4705                	li	a4,1
    80001278:	c398                	sw	a4,0(a5)
    8000127a:	fec42783          	lw	a5,-20(s0)
    8000127e:	0077979b          	slliw	a5,a5,0x7
    80001282:	2781                	sext.w	a5,a5
    80001284:	873e                	mv	a4,a5
    80001286:	0c0027b7          	lui	a5,0xc002
    8000128a:	97ba                	add	a5,a5,a4
    8000128c:	873e                	mv	a4,a5
    8000128e:	40000793          	li	a5,1024
    80001292:	c31c                	sw	a5,0(a4)
    80001294:	fec42783          	lw	a5,-20(s0)
    80001298:	00c7979b          	slliw	a5,a5,0xc
    8000129c:	2781                	sext.w	a5,a5
    8000129e:	873e                	mv	a4,a5
    800012a0:	0c2007b7          	lui	a5,0xc200
    800012a4:	97ba                	add	a5,a5,a4
    800012a6:	0007a023          	sw	zero,0(a5) # c200000 <_heap_size+0x4202494>
    800012aa:	f7fff0ef          	jal	ra,80001228 <r_mie>
    800012ae:	872a                	mv	a4,a0
    800012b0:	6785                	lui	a5,0x1
    800012b2:	80078793          	addi	a5,a5,-2048 # 800 <REGBYTES+0x7f8>
    800012b6:	8fd9                	or	a5,a5,a4
    800012b8:	853e                	mv	a0,a5
    800012ba:	f89ff0ef          	jal	ra,80001242 <w_mie>
    800012be:	0001                	nop
    800012c0:	60e2                	ld	ra,24(sp)
    800012c2:	6442                	ld	s0,16(sp)
    800012c4:	6105                	addi	sp,sp,32
    800012c6:	8082                	ret

00000000800012c8 <plic_claim>:
    800012c8:	1101                	addi	sp,sp,-32
    800012ca:	ec06                	sd	ra,24(sp)
    800012cc:	e822                	sd	s0,16(sp)
    800012ce:	1000                	addi	s0,sp,32
    800012d0:	f41ff0ef          	jal	ra,80001210 <r_tp>
    800012d4:	87aa                	mv	a5,a0
    800012d6:	fef42623          	sw	a5,-20(s0)
    800012da:	fec42783          	lw	a5,-20(s0)
    800012de:	00c7979b          	slliw	a5,a5,0xc
    800012e2:	2781                	sext.w	a5,a5
    800012e4:	873e                	mv	a4,a5
    800012e6:	0c2007b7          	lui	a5,0xc200
    800012ea:	0791                	addi	a5,a5,4
    800012ec:	97ba                	add	a5,a5,a4
    800012ee:	439c                	lw	a5,0(a5)
    800012f0:	fef42423          	sw	a5,-24(s0)
    800012f4:	fe842783          	lw	a5,-24(s0)
    800012f8:	853e                	mv	a0,a5
    800012fa:	60e2                	ld	ra,24(sp)
    800012fc:	6442                	ld	s0,16(sp)
    800012fe:	6105                	addi	sp,sp,32
    80001300:	8082                	ret

0000000080001302 <plic_complete>:
    80001302:	7179                	addi	sp,sp,-48
    80001304:	f406                	sd	ra,40(sp)
    80001306:	f022                	sd	s0,32(sp)
    80001308:	1800                	addi	s0,sp,48
    8000130a:	87aa                	mv	a5,a0
    8000130c:	fcf42e23          	sw	a5,-36(s0)
    80001310:	f01ff0ef          	jal	ra,80001210 <r_tp>
    80001314:	87aa                	mv	a5,a0
    80001316:	fef42623          	sw	a5,-20(s0)
    8000131a:	fec42783          	lw	a5,-20(s0)
    8000131e:	00c7979b          	slliw	a5,a5,0xc
    80001322:	2781                	sext.w	a5,a5
    80001324:	873e                	mv	a4,a5
    80001326:	0c2007b7          	lui	a5,0xc200
    8000132a:	0791                	addi	a5,a5,4
    8000132c:	97ba                	add	a5,a5,a4
    8000132e:	873e                	mv	a4,a5
    80001330:	fdc42783          	lw	a5,-36(s0)
    80001334:	c31c                	sw	a5,0(a4)
    80001336:	0001                	nop
    80001338:	70a2                	ld	ra,40(sp)
    8000133a:	7402                	ld	s0,32(sp)
    8000133c:	6145                	addi	sp,sp,48
    8000133e:	8082                	ret

0000000080001340 <r_mhartid>:
    80001340:	1101                	addi	sp,sp,-32
    80001342:	ec22                	sd	s0,24(sp)
    80001344:	1000                	addi	s0,sp,32
    80001346:	f14027f3          	csrr	a5,mhartid
    8000134a:	fef43423          	sd	a5,-24(s0)
    8000134e:	fe843783          	ld	a5,-24(s0)
    80001352:	853e                	mv	a0,a5
    80001354:	6462                	ld	s0,24(sp)
    80001356:	6105                	addi	sp,sp,32
    80001358:	8082                	ret

000000008000135a <r_mie>:
    8000135a:	1101                	addi	sp,sp,-32
    8000135c:	ec22                	sd	s0,24(sp)
    8000135e:	1000                	addi	s0,sp,32
    80001360:	304027f3          	csrr	a5,mie
    80001364:	fef43423          	sd	a5,-24(s0)
    80001368:	fe843783          	ld	a5,-24(s0)
    8000136c:	853e                	mv	a0,a5
    8000136e:	6462                	ld	s0,24(sp)
    80001370:	6105                	addi	sp,sp,32
    80001372:	8082                	ret

0000000080001374 <w_mie>:
    80001374:	1101                	addi	sp,sp,-32
    80001376:	ec22                	sd	s0,24(sp)
    80001378:	1000                	addi	s0,sp,32
    8000137a:	fea43423          	sd	a0,-24(s0)
    8000137e:	fe843783          	ld	a5,-24(s0)
    80001382:	30479073          	csrw	mie,a5
    80001386:	0001                	nop
    80001388:	6462                	ld	s0,24(sp)
    8000138a:	6105                	addi	sp,sp,32
    8000138c:	8082                	ret

000000008000138e <timer_load>:
    8000138e:	7179                	addi	sp,sp,-48
    80001390:	f406                	sd	ra,40(sp)
    80001392:	f022                	sd	s0,32(sp)
    80001394:	1800                	addi	s0,sp,48
    80001396:	87aa                	mv	a5,a0
    80001398:	fcf42e23          	sw	a5,-36(s0)
    8000139c:	fa5ff0ef          	jal	ra,80001340 <r_mhartid>
    800013a0:	87aa                	mv	a5,a0
    800013a2:	fef42623          	sw	a5,-20(s0)
    800013a6:	0200c7b7          	lui	a5,0x200c
    800013aa:	17e1                	addi	a5,a5,-8
    800013ac:	6398                	ld	a4,0(a5)
    800013ae:	fdc42783          	lw	a5,-36(s0)
    800013b2:	fec42683          	lw	a3,-20(s0)
    800013b6:	0036969b          	slliw	a3,a3,0x3
    800013ba:	2681                	sext.w	a3,a3
    800013bc:	8636                	mv	a2,a3
    800013be:	020046b7          	lui	a3,0x2004
    800013c2:	96b2                	add	a3,a3,a2
    800013c4:	97ba                	add	a5,a5,a4
    800013c6:	e29c                	sd	a5,0(a3)
    800013c8:	0001                	nop
    800013ca:	70a2                	ld	ra,40(sp)
    800013cc:	7402                	ld	s0,32(sp)
    800013ce:	6145                	addi	sp,sp,48
    800013d0:	8082                	ret

00000000800013d2 <timer_init>:
    800013d2:	1141                	addi	sp,sp,-16
    800013d4:	e406                	sd	ra,8(sp)
    800013d6:	e022                	sd	s0,0(sp)
    800013d8:	0800                	addi	s0,sp,16
    800013da:	0c800513          	li	a0,200
    800013de:	fb1ff0ef          	jal	ra,8000138e <timer_load>
    800013e2:	f79ff0ef          	jal	ra,8000135a <r_mie>
    800013e6:	87aa                	mv	a5,a0
    800013e8:	0807e793          	ori	a5,a5,128
    800013ec:	853e                	mv	a0,a5
    800013ee:	f87ff0ef          	jal	ra,80001374 <w_mie>
    800013f2:	0001                	nop
    800013f4:	60a2                	ld	ra,8(sp)
    800013f6:	6402                	ld	s0,0(sp)
    800013f8:	0141                	addi	sp,sp,16
    800013fa:	8082                	ret

00000000800013fc <timer_handler>:
    800013fc:	1141                	addi	sp,sp,-16
    800013fe:	e406                	sd	ra,8(sp)
    80001400:	e022                	sd	s0,0(sp)
    80001402:	0800                	addi	s0,sp,16
    80001404:	00001797          	auipc	a5,0x1
    80001408:	08c78793          	addi	a5,a5,140 # 80002490 <_tick>
    8000140c:	439c                	lw	a5,0(a5)
    8000140e:	2785                	addiw	a5,a5,1
    80001410:	0007871b          	sext.w	a4,a5
    80001414:	00001797          	auipc	a5,0x1
    80001418:	07c78793          	addi	a5,a5,124 # 80002490 <_tick>
    8000141c:	c398                	sw	a4,0(a5)
    8000141e:	00001797          	auipc	a5,0x1
    80001422:	07278793          	addi	a5,a5,114 # 80002490 <_tick>
    80001426:	439c                	lw	a5,0(a5)
    80001428:	85be                	mv	a1,a5
    8000142a:	00000517          	auipc	a0,0x0
    8000142e:	38650513          	addi	a0,a0,902 # 800017b0 <BSS_END+0x33c>
    80001432:	c20ff0ef          	jal	ra,80000852 <printf>
    80001436:	0c800513          	li	a0,200
    8000143a:	f55ff0ef          	jal	ra,8000138e <timer_load>
    8000143e:	a03ff0ef          	jal	ra,80000e40 <schedule>
    80001442:	0001                	nop
    80001444:	60a2                	ld	ra,8(sp)
    80001446:	6402                	ld	s0,0(sp)
    80001448:	0141                	addi	sp,sp,16
    8000144a:	8082                	ret
